
./aarch64:     file format elf64-littleaarch64


Disassembly of section .init:

0000000000400250 <_init>:
  400250:	d503201f 	nop
  400254:	a9bf7bfd 	stp	x29, x30, [sp, #-16]!
  400258:	910003fd 	mov	x29, sp
  40025c:	9400012a 	bl	400704 <call_weak_fn>
  400260:	a8c17bfd 	ldp	x29, x30, [sp], #16
  400264:	d65f03c0 	ret

Disassembly of section .plt:

0000000000400270 <.plt>:
  400270:	90000490 	adrp	x16, 490000 <.got.plt+0x18>
  400274:	f9400211 	ldr	x17, [x16]
  400278:	91000210 	add	x16, x16, #0x0
  40027c:	d61f0220 	br	x17
  400280:	90000490 	adrp	x16, 490000 <.got.plt+0x18>
  400284:	f9400611 	ldr	x17, [x16, #8]
  400288:	91002210 	add	x16, x16, #0x8
  40028c:	d61f0220 	br	x17
  400290:	90000490 	adrp	x16, 490000 <.got.plt+0x18>
  400294:	f9400a11 	ldr	x17, [x16, #16]
  400298:	91004210 	add	x16, x16, #0x10
  40029c:	d61f0220 	br	x17
  4002a0:	90000490 	adrp	x16, 490000 <.got.plt+0x18>
  4002a4:	f9400e11 	ldr	x17, [x16, #24]
  4002a8:	91006210 	add	x16, x16, #0x18
  4002ac:	d61f0220 	br	x17
  4002b0:	90000490 	adrp	x16, 490000 <.got.plt+0x18>
  4002b4:	f9401211 	ldr	x17, [x16, #32]
  4002b8:	91008210 	add	x16, x16, #0x20
  4002bc:	d61f0220 	br	x17

Disassembly of section .text:

00000000004002c0 <abort>:
  4002c0:	a9b37bfd 	stp	x29, x30, [sp, #-208]!
  4002c4:	910003fd 	mov	x29, sp
  4002c8:	a90153f3 	stp	x19, x20, [sp, #16]
  4002cc:	d0000493 	adrp	x19, 492000 <static_slotinfo+0x270>
  4002d0:	9107a274 	add	x20, x19, #0x1e8
  4002d4:	f90013f5 	str	x21, [sp, #32]
  4002d8:	d53bd055 	mrs	x21, tpidr_el0
  4002dc:	d11d02b5 	sub	x21, x21, #0x740
  4002e0:	f9400680 	ldr	x0, [x20, #8]
  4002e4:	eb15001f 	cmp	x0, x21
  4002e8:	54000140 	b.eq	400310 <abort+0x50>  // b.none
  4002ec:	aa1403e2 	mov	x2, x20
  4002f0:	52800021 	mov	w1, #0x1                   	// #1
  4002f4:	52800000 	mov	w0, #0x0                   	// #0
  4002f8:	9401269a 	bl	449d60 <__aarch64_cas4_acq>
  4002fc:	34000060 	cbz	w0, 400308 <abort+0x48>
  400300:	aa1403e0 	mov	x0, x20
  400304:	9400055f 	bl	401880 <__lll_lock_wait_private>
  400308:	9107a260 	add	x0, x19, #0x1e8
  40030c:	f9000415 	str	x21, [x0, #8]
  400310:	9107a264 	add	x4, x19, #0x1e8
  400314:	b9400480 	ldr	w0, [x4, #4]
  400318:	b9401081 	ldr	w1, [x4, #16]
  40031c:	11000400 	add	w0, w0, #0x1
  400320:	b9000480 	str	w0, [x4, #4]
  400324:	35000161 	cbnz	w1, 400350 <abort+0x90>
  400328:	52800025 	mov	w5, #0x1                   	// #1
  40032c:	d2800406 	mov	x6, #0x20                  	// #32
  400330:	d2800020 	mov	x0, #0x1                   	// #1
  400334:	9100e3e1 	add	x1, sp, #0x38
  400338:	d2800002 	mov	x2, #0x0                   	// #0
  40033c:	d2800103 	mov	x3, #0x8                   	// #8
  400340:	d28010e8 	mov	x8, #0x87                  	// #135
  400344:	b9001085 	str	w5, [x4, #16]
  400348:	f9001fe6 	str	x6, [sp, #56]
  40034c:	d4000001 	svc	#0x0
  400350:	9107a274 	add	x20, x19, #0x1e8
  400354:	b9401280 	ldr	w0, [x20, #16]
  400358:	7100041f 	cmp	w0, #0x1
  40035c:	54000421 	b.ne	4003e0 <abort+0x120>  // b.any
  400360:	b9400680 	ldr	w0, [x20, #4]
  400364:	b900129f 	str	wzr, [x20, #16]
  400368:	51000400 	sub	w0, w0, #0x1
  40036c:	b9000680 	str	w0, [x20, #4]
  400370:	35000100 	cbnz	w0, 400390 <abort+0xd0>
  400374:	aa1403e1 	mov	x1, x20
  400378:	f900069f 	str	xzr, [x20, #8]
  40037c:	94012715 	bl	449fd0 <__aarch64_swp4_rel>
  400380:	7100041f 	cmp	w0, #0x1
  400384:	5400006d 	b.le	400390 <abort+0xd0>
  400388:	aa1403e0 	mov	x0, x20
  40038c:	9400057d 	bl	401980 <__lll_lock_wake_private>
  400390:	9107a274 	add	x20, x19, #0x1e8
  400394:	528000c0 	mov	w0, #0x6                   	// #6
  400398:	94003372 	bl	40d160 <raise>
  40039c:	f9400680 	ldr	x0, [x20, #8]
  4003a0:	eb0002bf 	cmp	x21, x0
  4003a4:	54000140 	b.eq	4003cc <abort+0x10c>  // b.none
  4003a8:	aa1403e2 	mov	x2, x20
  4003ac:	52800021 	mov	w1, #0x1                   	// #1
  4003b0:	52800000 	mov	w0, #0x0                   	// #0
  4003b4:	9401266b 	bl	449d60 <__aarch64_cas4_acq>
  4003b8:	34000060 	cbz	w0, 4003c4 <abort+0x104>
  4003bc:	aa1403e0 	mov	x0, x20
  4003c0:	94000530 	bl	401880 <__lll_lock_wait_private>
  4003c4:	9107a260 	add	x0, x19, #0x1e8
  4003c8:	f9000415 	str	x21, [x0, #8]
  4003cc:	9107a261 	add	x1, x19, #0x1e8
  4003d0:	b9400420 	ldr	w0, [x1, #4]
  4003d4:	11000400 	add	w0, w0, #0x1
  4003d8:	b9000420 	str	w0, [x1, #4]
  4003dc:	14000003 	b	4003e8 <abort+0x128>
  4003e0:	7100081f 	cmp	w0, #0x2
  4003e4:	540001e1 	b.ne	400420 <abort+0x160>  // b.any
  4003e8:	9107a264 	add	x4, x19, #0x1e8
  4003ec:	9100e3e3 	add	x3, sp, #0x38
  4003f0:	52800065 	mov	w5, #0x3                   	// #3
  4003f4:	d2801302 	mov	x2, #0x98                  	// #152
  4003f8:	52800001 	mov	w1, #0x0                   	// #0
  4003fc:	aa0303e0 	mov	x0, x3
  400400:	b9001085 	str	w5, [x4, #16]
  400404:	97ffffa7 	bl	4002a0 <.plt+0x30>
  400408:	92800004 	mov	x4, #0xffffffffffffffff    	// #-1
  40040c:	aa0003e1 	mov	x1, x0
  400410:	d2800002 	mov	x2, #0x0                   	// #0
  400414:	528000c0 	mov	w0, #0x6                   	// #6
  400418:	f90023e4 	str	x4, [sp, #64]
  40041c:	94003369 	bl	40d1c0 <__sigaction>
  400420:	9107a261 	add	x1, x19, #0x1e8
  400424:	b9401020 	ldr	w0, [x1, #16]
  400428:	71000c1f 	cmp	w0, #0x3
  40042c:	540000a1 	b.ne	400440 <abort+0x180>  // b.any
  400430:	52800082 	mov	w2, #0x4                   	// #4
  400434:	528000c0 	mov	w0, #0x6                   	// #6
  400438:	b9001022 	str	w2, [x1, #16]
  40043c:	94003349 	bl	40d160 <raise>
  400440:	9107a260 	add	x0, x19, #0x1e8
  400444:	b9401001 	ldr	w1, [x0, #16]
  400448:	7100103f 	cmp	w1, #0x4
  40044c:	54000081 	b.ne	40045c <abort+0x19c>  // b.any
  400450:	528000a1 	mov	w1, #0x5                   	// #5
  400454:	b9001001 	str	w1, [x0, #16]
  400458:	d4207d00 	brk	#0x3e8
  40045c:	9107a273 	add	x19, x19, #0x1e8
  400460:	b9401260 	ldr	w0, [x19, #16]
  400464:	7100141f 	cmp	w0, #0x5
  400468:	540000a1 	b.ne	40047c <abort+0x1bc>  // b.any
  40046c:	528000c1 	mov	w1, #0x6                   	// #6
  400470:	52800fe0 	mov	w0, #0x7f                  	// #127
  400474:	b9001261 	str	w1, [x19, #16]
  400478:	94002682 	bl	409e80 <_exit>
  40047c:	d4207d00 	brk	#0x3e8
  400480:	17ffffff 	b	40047c <abort+0x1bc>

0000000000400484 <_dl_start>:
  400484:	a9bf7bfd 	stp	x29, x30, [sp, #-16]!
  400488:	910003fd 	mov	x29, sp
  40048c:	97ffff8d 	bl	4002c0 <abort>
  400490:	d503201f 	nop
  400494:	d503201f 	nop
  400498:	d503201f 	nop
  40049c:	d503201f 	nop

00000000004004a0 <btree_release_tree_recursively>:
  4004a0:	a9bd7bfd 	stp	x29, x30, [sp, #-48]!
  4004a4:	910003fd 	mov	x29, sp
  4004a8:	a90153f3 	stp	x19, x20, [sp, #16]
  4004ac:	aa0103f3 	mov	x19, x1
  4004b0:	f90013f5 	str	x21, [sp, #32]
  4004b4:	aa0003f5 	mov	x21, x0
  4004b8:	aa0103e0 	mov	x0, x1
  4004bc:	94013491 	bl	44d700 <version_lock_lock_exclusive>
  4004c0:	b9400e74 	ldr	w20, [x19, #12]
  4004c4:	35000174 	cbnz	w20, 4004f0 <btree_release_tree_recursively+0x50>
  4004c8:	b9400a60 	ldr	w0, [x19, #8]
  4004cc:	34000120 	cbz	w0, 4004f0 <btree_release_tree_recursively+0x50>
  4004d0:	8b345261 	add	x1, x19, w20, uxtw #4
  4004d4:	aa1503e0 	mov	x0, x21
  4004d8:	11000694 	add	w20, w20, #0x1
  4004dc:	f9400c21 	ldr	x1, [x1, #24]
  4004e0:	97fffff0 	bl	4004a0 <btree_release_tree_recursively>
  4004e4:	b9400a60 	ldr	w0, [x19, #8]
  4004e8:	6b14001f 	cmp	w0, w20
  4004ec:	54ffff28 	b.hi	4004d0 <btree_release_tree_recursively+0x30>  // b.pmore
  4004f0:	52800040 	mov	w0, #0x2                   	// #2
  4004f4:	910022b5 	add	x21, x21, #0x8
  4004f8:	b9000e60 	str	w0, [x19, #12]
  4004fc:	c8dffeb4 	ldar	x20, [x21]
  400500:	f9000e74 	str	x20, [x19, #24]
  400504:	aa1403e0 	mov	x0, x20
  400508:	aa1503e2 	mov	x2, x21
  40050c:	aa1303e1 	mov	x1, x19
  400510:	940148b4 	bl	4527e0 <__aarch64_cas8_acq_rel>
  400514:	eb14001f 	cmp	x0, x20
  400518:	aa0003f4 	mov	x20, x0
  40051c:	54ffff21 	b.ne	400500 <btree_release_tree_recursively+0x60>  // b.any
  400520:	f94013f5 	ldr	x21, [sp, #32]
  400524:	aa1303e0 	mov	x0, x19
  400528:	a94153f3 	ldp	x19, x20, [sp, #16]
  40052c:	a8c37bfd 	ldp	x29, x30, [sp], #48
  400530:	14013584 	b	44db40 <version_lock_unlock_exclusive>
  400534:	d503201f 	nop
  400538:	d503201f 	nop
  40053c:	d503201f 	nop

0000000000400540 <btree_destroy>:
  400540:	a9be7bfd 	stp	x29, x30, [sp, #-32]!
  400544:	910003fd 	mov	x29, sp
  400548:	a90153f3 	stp	x19, x20, [sp, #16]
  40054c:	aa0003f4 	mov	x20, x0
  400550:	aa1403e1 	mov	x1, x20
  400554:	d2800000 	mov	x0, #0x0                   	// #0
  400558:	940148f6 	bl	452930 <__aarch64_swp8_acq_rel>
  40055c:	b5000160 	cbnz	x0, 400588 <btree_destroy+0x48>
  400560:	f9400693 	ldr	x19, [x20, #8]
  400564:	b40000d3 	cbz	x19, 40057c <btree_destroy+0x3c>
  400568:	aa1303e0 	mov	x0, x19
  40056c:	f9400e73 	ldr	x19, [x19, #24]
  400570:	94001778 	bl	406350 <__free>
  400574:	f9000693 	str	x19, [x20, #8]
  400578:	b5ffff93 	cbnz	x19, 400568 <btree_destroy+0x28>
  40057c:	a94153f3 	ldp	x19, x20, [sp, #16]
  400580:	a8c27bfd 	ldp	x29, x30, [sp], #32
  400584:	d65f03c0 	ret
  400588:	aa0003e1 	mov	x1, x0
  40058c:	aa1403e0 	mov	x0, x20
  400590:	97ffffc4 	bl	4004a0 <btree_release_tree_recursively>
  400594:	17fffff3 	b	400560 <btree_destroy+0x20>
  400598:	d503201f 	nop
  40059c:	d503201f 	nop

00000000004005a0 <release_registered_frames>:
  4005a0:	a9be7bfd 	stp	x29, x30, [sp, #-32]!
  4005a4:	910003fd 	mov	x29, sp
  4005a8:	f9000bf3 	str	x19, [sp, #16]
  4005ac:	d00004b3 	adrp	x19, 496000 <__pthread_keys+0x39d0>
  4005b0:	9132e273 	add	x19, x19, #0xcb8
  4005b4:	9101e260 	add	x0, x19, #0x78
  4005b8:	97ffffe2 	bl	400540 <btree_destroy>
  4005bc:	91018260 	add	x0, x19, #0x60
  4005c0:	97ffffe0 	bl	400540 <btree_destroy>
  4005c4:	52800020 	mov	w0, #0x1                   	// #1
  4005c8:	39024260 	strb	w0, [x19, #144]
  4005cc:	f9400bf3 	ldr	x19, [sp, #16]
  4005d0:	a8c27bfd 	ldp	x29, x30, [sp], #32
  4005d4:	d65f03c0 	ret
  4005d8:	d503201f 	nop
  4005dc:	d503201f 	nop

00000000004005e0 <_IO_stdfiles_init>:
  4005e0:	b0000480 	adrp	x0, 491000 <_IO_list_all>
  4005e4:	91000001 	add	x1, x0, #0x0
  4005e8:	f9400000 	ldr	x0, [x0]
  4005ec:	b40000a0 	cbz	x0, 400600 <_IO_stdfiles_init+0x20>
  4005f0:	f9005c01 	str	x1, [x0, #184]
  4005f4:	9101a001 	add	x1, x0, #0x68
  4005f8:	f9403400 	ldr	x0, [x0, #104]
  4005fc:	b5ffffa0 	cbnz	x0, 4005f0 <_IO_stdfiles_init+0x10>
  400600:	d65f03c0 	ret
  400604:	d503201f 	nop
  400608:	d503201f 	nop
  40060c:	d503201f 	nop
  400610:	d503201f 	nop
  400614:	d503201f 	nop
  400618:	d503201f 	nop
  40061c:	d503201f 	nop

0000000000400620 <init_have_lse_atomics>:
  400620:	a9bf7bfd 	stp	x29, x30, [sp, #-16]!
  400624:	d2800200 	mov	x0, #0x10                  	// #16
  400628:	910003fd 	mov	x29, sp
  40062c:	94014761 	bl	4523b0 <__getauxval>
  400630:	d00004a1 	adrp	x1, 496000 <__pthread_keys+0x39d0>
  400634:	d3482000 	ubfx	x0, x0, #8, #1
  400638:	a8c17bfd 	ldp	x29, x30, [sp], #16
  40063c:	39312020 	strb	w0, [x1, #3144]
  400640:	d65f03c0 	ret
  400644:	d503201f 	nop
  400648:	d503201f 	nop
  40064c:	d503201f 	nop
  400650:	d503201f 	nop
  400654:	d503201f 	nop
  400658:	d503201f 	nop
  40065c:	d503201f 	nop

0000000000400660 <init_have_sme>:
  400660:	a9bf7bfd 	stp	x29, x30, [sp, #-16]!
  400664:	d2800340 	mov	x0, #0x1a                  	// #26
  400668:	910003fd 	mov	x29, sp
  40066c:	94014751 	bl	4523b0 <__getauxval>
  400670:	d00004a1 	adrp	x1, 496000 <__pthread_keys+0x39d0>
  400674:	d3575c00 	ubfx	x0, x0, #23, #1
  400678:	a8c17bfd 	ldp	x29, x30, [sp], #16
  40067c:	39360020 	strb	w0, [x1, #3456]
  400680:	d65f03c0 	ret
  400684:	d503201f 	nop
  400688:	d503201f 	nop
  40068c:	d503201f 	nop
  400690:	d503201f 	nop
  400694:	d503201f 	nop
  400698:	d503201f 	nop
  40069c:	d503201f 	nop
  4006a0:	d503201f 	nop
  4006a4:	d503201f 	nop
  4006a8:	d503201f 	nop
  4006ac:	d503201f 	nop
  4006b0:	d503201f 	nop
  4006b4:	d503201f 	nop
  4006b8:	d503201f 	nop
  4006bc:	d503201f 	nop

00000000004006c0 <_start>:
  4006c0:	d503201f 	nop
  4006c4:	d280001d 	mov	x29, #0x0                   	// #0
  4006c8:	d280001e 	mov	x30, #0x0                   	// #0
  4006cc:	aa0003e5 	mov	x5, x0
  4006d0:	f94003e1 	ldr	x1, [sp]
  4006d4:	910023e2 	add	x2, sp, #0x8
  4006d8:	910003e6 	mov	x6, sp
  4006dc:	90000000 	adrp	x0, 400000 <__ehdr_start>
  4006e0:	911bd000 	add	x0, x0, #0x6f4
  4006e4:	d2800003 	mov	x3, #0x0                   	// #0
  4006e8:	d2800004 	mov	x4, #0x0                   	// #0
  4006ec:	940000ed 	bl	400aa0 <__libc_start_main>
  4006f0:	97fffef4 	bl	4002c0 <abort>

00000000004006f4 <__wrap_main>:
  4006f4:	d503201f 	nop
  4006f8:	14000051 	b	40083c <main>
  4006fc:	d503201f 	nop

0000000000400700 <_dl_relocate_static_pie>:
  400700:	d65f03c0 	ret

0000000000400704 <call_weak_fn>:
  400704:	f0000460 	adrp	x0, 48f000 <_IO_file_jumps+0xf8>
  400708:	f947e400 	ldr	x0, [x0, #4040]
  40070c:	b4000040 	cbz	x0, 400714 <call_weak_fn+0x10>
  400710:	d503201f 	nop
  400714:	d65f03c0 	ret
  400718:	d503201f 	nop
  40071c:	d503201f 	nop

0000000000400720 <deregister_tm_clones>:
  400720:	b0000480 	adrp	x0, 491000 <_IO_list_all>
  400724:	91252000 	add	x0, x0, #0x948
  400728:	b0000481 	adrp	x1, 491000 <_IO_list_all>
  40072c:	91252021 	add	x1, x1, #0x948
  400730:	eb00003f 	cmp	x1, x0
  400734:	540000c0 	b.eq	40074c <deregister_tm_clones+0x2c>  // b.none
  400738:	f0000461 	adrp	x1, 48f000 <_IO_file_jumps+0xf8>
  40073c:	f9473421 	ldr	x1, [x1, #3688]
  400740:	b4000061 	cbz	x1, 40074c <deregister_tm_clones+0x2c>
  400744:	aa0103f0 	mov	x16, x1
  400748:	d61f0200 	br	x16
  40074c:	d65f03c0 	ret

0000000000400750 <register_tm_clones>:
  400750:	b0000480 	adrp	x0, 491000 <_IO_list_all>
  400754:	91252000 	add	x0, x0, #0x948
  400758:	b0000481 	adrp	x1, 491000 <_IO_list_all>
  40075c:	91252021 	add	x1, x1, #0x948
  400760:	cb000021 	sub	x1, x1, x0
  400764:	d37ffc22 	lsr	x2, x1, #63
  400768:	8b810c41 	add	x1, x2, x1, asr #3
  40076c:	9341fc21 	asr	x1, x1, #1
  400770:	b40000c1 	cbz	x1, 400788 <register_tm_clones+0x38>
  400774:	f0000462 	adrp	x2, 48f000 <_IO_file_jumps+0xf8>
  400778:	f946e842 	ldr	x2, [x2, #3536]
  40077c:	b4000062 	cbz	x2, 400788 <register_tm_clones+0x38>
  400780:	aa0203f0 	mov	x16, x2
  400784:	d61f0200 	br	x16
  400788:	d65f03c0 	ret

000000000040078c <__do_global_dtors_aux>:
  40078c:	a9be7bfd 	stp	x29, x30, [sp, #-32]!
  400790:	910003fd 	mov	x29, sp
  400794:	f9000bf3 	str	x19, [sp, #16]
  400798:	b0000493 	adrp	x19, 491000 <_IO_list_all>
  40079c:	39654260 	ldrb	w0, [x19, #2384]
  4007a0:	37000140 	tbnz	w0, #0, 4007c8 <__do_global_dtors_aux+0x3c>
  4007a4:	97ffffdf 	bl	400720 <deregister_tm_clones>
  4007a8:	f0000460 	adrp	x0, 48f000 <_IO_file_jumps+0xf8>
  4007ac:	f946dc00 	ldr	x0, [x0, #3512]
  4007b0:	b4000080 	cbz	x0, 4007c0 <__do_global_dtors_aux+0x34>
  4007b4:	90000360 	adrp	x0, 46c000 <__tens+0x2a70>
  4007b8:	91382000 	add	x0, x0, #0xe08
  4007bc:	94013c71 	bl	44f980 <__deregister_frame_info>
  4007c0:	52800020 	mov	w0, #0x1                   	// #1
  4007c4:	39254260 	strb	w0, [x19, #2384]
  4007c8:	f9400bf3 	ldr	x19, [sp, #16]
  4007cc:	a8c27bfd 	ldp	x29, x30, [sp], #32
  4007d0:	d65f03c0 	ret
  4007d4:	d503201f 	nop
  4007d8:	d503201f 	nop
  4007dc:	d503201f 	nop

00000000004007e0 <frame_dummy>:
  4007e0:	f0000460 	adrp	x0, 48f000 <_IO_file_jumps+0xf8>
  4007e4:	f947d000 	ldr	x0, [x0, #4000]
  4007e8:	b4000140 	cbz	x0, 400810 <frame_dummy+0x30>
  4007ec:	a9bf7bfd 	stp	x29, x30, [sp, #-16]!
  4007f0:	b0000481 	adrp	x1, 491000 <_IO_list_all>
  4007f4:	90000360 	adrp	x0, 46c000 <__tens+0x2a70>
  4007f8:	910003fd 	mov	x29, sp
  4007fc:	91256021 	add	x1, x1, #0x958
  400800:	91382000 	add	x0, x0, #0xe08
  400804:	94013bb8 	bl	44f6e4 <__register_frame_info>
  400808:	a8c17bfd 	ldp	x29, x30, [sp], #16
  40080c:	17ffffd1 	b	400750 <register_tm_clones>
  400810:	17ffffd0 	b	400750 <register_tm_clones>

0000000000400814 <returny_func>:
  400814:	d10043ff 	sub	sp, sp, #0x10
  400818:	f90007e0 	str	x0, [sp, #8]
  40081c:	39001fe1 	strb	w1, [sp, #7]
  400820:	79000be2 	strh	w2, [sp, #4]
  400824:	b90003e3 	str	w3, [sp]
  400828:	39401fe1 	ldrb	w1, [sp, #7]
  40082c:	79c00be0 	ldrsh	w0, [sp, #4]
  400830:	0b000020 	add	w0, w1, w0
  400834:	910043ff 	add	sp, sp, #0x10
  400838:	d65f03c0 	ret

000000000040083c <main>:
  40083c:	a9bc7bfd 	stp	x29, x30, [sp, #-64]!
  400840:	910003fd 	mov	x29, sp
  400844:	b9001fe0 	str	w0, [sp, #28]
  400848:	f9000be1 	str	x1, [sp, #16]
  40084c:	d29f59c0 	mov	x0, #0xface                	// #64206
  400850:	f2be01a0 	movk	x0, #0xf00d, lsl #16
  400854:	f2d95fc0 	movk	x0, #0xcafe, lsl #32
  400858:	f2f757c0 	movk	x0, #0xbabe, lsl #48
  40085c:	f9001fe0 	str	x0, [sp, #56]
  400860:	529e01a0 	mov	w0, #0xf00d                	// #61453
  400864:	72bbd5a0 	movk	w0, #0xdead, lsl #16
  400868:	b90037e0 	str	w0, [sp, #52]
  40086c:	d0000280 	adrp	x0, 452000 <__pthread_mutex_cond_lock_full+0x680>
  400870:	91260001 	add	x1, x0, #0x980
  400874:	9100a3e0 	add	x0, sp, #0x28
  400878:	b9400022 	ldr	w2, [x1]
  40087c:	79400821 	ldrh	w1, [x1, #4]
  400880:	b9000002 	str	w2, [x0]
  400884:	79000801 	strh	w1, [x0, #4]
  400888:	5280a720 	mov	w0, #0x539                 	// #1337
  40088c:	b90027e0 	str	w0, [sp, #36]
  400890:	14000004 	b	4008a0 <main+0x64>
  400894:	b94027e0 	ldr	w0, [sp, #36]
  400898:	51000400 	sub	w0, w0, #0x1
  40089c:	b90027e0 	str	w0, [sp, #36]
  4008a0:	b94027e0 	ldr	w0, [sp, #36]
  4008a4:	7100001f 	cmp	w0, #0x0
  4008a8:	54ffff61 	b.ne	400894 <main+0x58>  // b.any
  4008ac:	910093e0 	add	x0, sp, #0x24
  4008b0:	528266e3 	mov	w3, #0x1337                	// #4919
  4008b4:	72a00063 	movk	w3, #0x3, lsl #16
  4008b8:	52800d22 	mov	w2, #0x69                  	// #105
  4008bc:	52800841 	mov	w1, #0x42                  	// #66
  4008c0:	97ffffd5 	bl	400814 <returny_func>
  4008c4:	b90033e0 	str	w0, [sp, #48]
  4008c8:	528000e3 	mov	w3, #0x7                   	// #7
  4008cc:	d0000280 	adrp	x0, 452000 <__pthread_mutex_cond_lock_full+0x680>
  4008d0:	9125e002 	add	x2, x0, #0x978
  4008d4:	52800021 	mov	w1, #0x1                   	// #1
  4008d8:	d2800800 	mov	x0, #0x40                  	// #64
  4008dc:	940027d9 	bl	40a840 <syscall>
  4008e0:	52800400 	mov	w0, #0x20                  	// #32
  4008e4:	a8c47bfd 	ldp	x29, x30, [sp], #64
  4008e8:	d65f03c0 	ret
  4008ec:	d503201f 	nop
  4008f0:	d503201f 	nop
  4008f4:	d503201f 	nop
  4008f8:	d503201f 	nop
  4008fc:	d503201f 	nop

0000000000400900 <call_fini>:
  400900:	a9be7bfd 	stp	x29, x30, [sp, #-32]!
  400904:	910003fd 	mov	x29, sp
  400908:	a90153f3 	stp	x19, x20, [sp, #16]
  40090c:	90000473 	adrp	x19, 48c000 <__FRAME_END__+0x12fc4>
  400910:	90000474 	adrp	x20, 48c000 <__FRAME_END__+0x12fc4>
  400914:	910b8273 	add	x19, x19, #0x2e0
  400918:	910b4294 	add	x20, x20, #0x2d0
  40091c:	cb140273 	sub	x19, x19, x20
  400920:	9343fe73 	asr	x19, x19, #3
  400924:	b40000d3 	cbz	x19, 40093c <call_fini+0x3c>
  400928:	8b130e80 	add	x0, x20, x19, lsl #3
  40092c:	f85f8000 	ldur	x0, [x0, #-8]
  400930:	d63f0000 	blr	x0
  400934:	f1000673 	subs	x19, x19, #0x1
  400938:	54ffff81 	b.ne	400928 <call_fini+0x28>  // b.any
  40093c:	a94153f3 	ldp	x19, x20, [sp, #16]
  400940:	a8c27bfd 	ldp	x29, x30, [sp], #32
  400944:	14014805 	b	452958 <_fini>

0000000000400948 <prefer_sve_ifuncs>:
  400948:	a9a67bfd 	stp	x29, x30, [sp, #-416]!
  40094c:	910003fd 	mov	x29, sp
  400950:	910063e0 	add	x0, sp, #0x18
  400954:	9400256b 	bl	409f00 <__uname>
  400958:	52800021 	mov	w1, #0x1                   	// #1
  40095c:	37f80480 	tbnz	w0, #31, 4009ec <prefer_sve_ifuncs+0xa4>
  400960:	91026be3 	add	x3, sp, #0x9a
  400964:	52800204 	mov	w4, #0x10                  	// #16
  400968:	52800005 	mov	w5, #0x0                   	// #0
  40096c:	39400062 	ldrb	w2, [x3]
  400970:	52800000 	mov	w0, #0x0                   	// #0
  400974:	5100c041 	sub	w1, w2, #0x30
  400978:	12001c21 	and	w1, w1, #0xff
  40097c:	7100243f 	cmp	w1, #0x9
  400980:	54000128 	b.hi	4009a4 <prefer_sve_ifuncs+0x5c>  // b.pmore
  400984:	0b000800 	add	w0, w0, w0, lsl #2
  400988:	0b000440 	add	w0, w2, w0, lsl #1
  40098c:	38401c62 	ldrb	w2, [x3, #1]!
  400990:	5100c000 	sub	w0, w0, #0x30
  400994:	5100c041 	sub	w1, w2, #0x30
  400998:	12001c21 	and	w1, w1, #0xff
  40099c:	7100243f 	cmp	w1, #0x9
  4009a0:	54ffff29 	b.ls	400984 <prefer_sve_ifuncs+0x3c>  // b.plast
  4009a4:	12001c00 	and	w0, w0, #0xff
  4009a8:	91000463 	add	x3, x3, #0x1
  4009ac:	1ac42000 	lsl	w0, w0, w4
  4009b0:	2a0000a5 	orr	w5, w5, w0
  4009b4:	7100b85f 	cmp	w2, #0x2e
  4009b8:	54000081 	b.ne	4009c8 <prefer_sve_ifuncs+0x80>  // b.any
  4009bc:	51002084 	sub	w4, w4, #0x8
  4009c0:	3100209f 	cmn	w4, #0x8
  4009c4:	54fffd41 	b.ne	40096c <prefer_sve_ifuncs+0x24>  // b.any
  4009c8:	514100a1 	sub	w1, w5, #0x40, lsl #12
  4009cc:	529e5fe0 	mov	w0, #0xf2ff                	// #62207
  4009d0:	513c0021 	sub	w1, w1, #0xf00
  4009d4:	72a00020 	movk	w0, #0x1, lsl #16
  4009d8:	6b00003f 	cmp	w1, w0
  4009dc:	5281c000 	mov	w0, #0xe00                 	// #3584
  4009e0:	72a000a0 	movk	w0, #0x5, lsl #16
  4009e4:	7a4090a4 	ccmp	w5, w0, #0x4, ls	// ls = plast
  4009e8:	1a9f17e1 	cset	w1, eq	// eq = none
  4009ec:	2a0103e0 	mov	w0, w1
  4009f0:	a8da7bfd 	ldp	x29, x30, [sp], #416
  4009f4:	d65f03c0 	ret
  4009f8:	d503201f 	nop
  4009fc:	d503201f 	nop

0000000000400a00 <__libc_start_call_main>:
  400a00:	a9af7bfd 	stp	x29, x30, [sp, #-272]!
  400a04:	910003fd 	mov	x29, sp
  400a08:	f9000fe0 	str	x0, [sp, #24]
  400a0c:	9100c3e0 	add	x0, sp, #0x30
  400a10:	b90027e1 	str	w1, [sp, #36]
  400a14:	f90017e2 	str	x2, [sp, #40]
  400a18:	9400019a 	bl	401080 <_setjmp>
  400a1c:	35000200 	cbnz	w0, 400a5c <__libc_start_call_main+0x5c>
  400a20:	d53bd040 	mrs	x0, tpidr_el0
  400a24:	d00004a1 	adrp	x1, 496000 <__pthread_keys+0x39d0>
  400a28:	d1180003 	sub	x3, x0, #0x600
  400a2c:	d11d0000 	sub	x0, x0, #0x740
  400a30:	f9433c22 	ldr	x2, [x1, #1656]
  400a34:	9100c3e1 	add	x1, sp, #0x30
  400a38:	3cdb807f 	ldur	q31, [x3, #-72]
  400a3c:	f9008001 	str	x1, [x0, #256]
  400a40:	f9400fe3 	ldr	x3, [sp, #24]
  400a44:	f94017e1 	ldr	x1, [sp, #40]
  400a48:	6e1f43ff 	ext	v31.16b, v31.16b, v31.16b, #8
  400a4c:	b94027e0 	ldr	w0, [sp, #36]
  400a50:	3c8e83ff 	stur	q31, [sp, #232]
  400a54:	d63f0060 	blr	x3
  400a58:	940002f6 	bl	401630 <exit>
  400a5c:	940003d9 	bl	4019c0 <__nptl_deallocate_tsd>
  400a60:	90000481 	adrp	x1, 490000 <.got.plt+0x18>
  400a64:	12800000 	mov	w0, #0xffffffff            	// #-1
  400a68:	91012021 	add	x1, x1, #0x48
  400a6c:	940124f9 	bl	449e50 <__aarch64_ldadd4_relax>
  400a70:	7100041f 	cmp	w0, #0x1
  400a74:	54000100 	b.eq	400a94 <__libc_start_call_main+0x94>  // b.none
  400a78:	d2800000 	mov	x0, #0x0                   	// #0
  400a7c:	d2800ba8 	mov	x8, #0x5d                  	// #93
  400a80:	d4000001 	svc	#0x0
  400a84:	d2800000 	mov	x0, #0x0                   	// #0
  400a88:	d2800ba8 	mov	x8, #0x5d                  	// #93
  400a8c:	d4000001 	svc	#0x0
  400a90:	17fffffa 	b	400a78 <__libc_start_call_main+0x78>
  400a94:	52800000 	mov	w0, #0x0                   	// #0
  400a98:	940002e6 	bl	401630 <exit>
  400a9c:	d503201f 	nop

0000000000400aa0 <__libc_start_main>:
  400aa0:	a9b77bfd 	stp	x29, x30, [sp, #-144]!
  400aa4:	910003fd 	mov	x29, sp
  400aa8:	a90153f3 	stp	x19, x20, [sp, #16]
  400aac:	2a0103f4 	mov	w20, w1
  400ab0:	d0000461 	adrp	x1, 48e000 <tunable_list+0x288>
  400ab4:	a9025bf5 	stp	x21, x22, [sp, #32]
  400ab8:	d00004b6 	adrp	x22, 496000 <__pthread_keys+0x39d0>
  400abc:	8b34cc43 	add	x3, x2, w20, sxtw #3
  400ac0:	aa0203f5 	mov	x21, x2
  400ac4:	f906d826 	str	x6, [x1, #3504]
  400ac8:	a90363f7 	stp	x23, x24, [sp, #48]
  400acc:	a9046bf9 	stp	x25, x26, [sp, #64]
  400ad0:	a90573fb 	stp	x27, x28, [sp, #80]
  400ad4:	a90617e0 	stp	x0, x5, [sp, #96]
  400ad8:	91002060 	add	x0, x3, #0x8
  400adc:	f9033ec0 	str	x0, [x22, #1656]
  400ae0:	f8408403 	ldr	x3, [x0], #8
  400ae4:	b5ffffe3 	cbnz	x3, 400ae0 <__libc_start_main+0x40>
  400ae8:	94002e3e 	bl	40c3e0 <_dl_aux_init>
  400aec:	9101e3f9 	add	x25, sp, #0x78
  400af0:	f9433ec0 	ldr	x0, [x22, #1656]
  400af4:	94002c8b 	bl	40bd20 <__tunables_init>
  400af8:	aa1903e1 	mov	x1, x25
  400afc:	d2800002 	mov	x2, #0x0                   	// #0
  400b00:	52800000 	mov	w0, #0x0                   	// #0
  400b04:	94002de7 	bl	40c2a0 <__tunable_get_val>
  400b08:	f9403ffc 	ldr	x28, [sp, #120]
  400b0c:	b400019c 	cbz	x28, 400b3c <__libc_start_main+0x9c>
  400b10:	f940079b 	ldr	x27, [x28, #8]
  400b14:	90000477 	adrp	x23, 48c000 <__FRAME_END__+0x12fc4>
  400b18:	910b82fa 	add	x26, x23, #0x2e0
  400b1c:	52800013 	mov	w19, #0x0                   	// #0
  400b20:	f9400740 	ldr	x0, [x26, #8]
  400b24:	eb1b001f 	cmp	x0, x27
  400b28:	54000780 	b.eq	400c18 <__libc_start_main+0x178>  // b.none
  400b2c:	11000673 	add	w19, w19, #0x1
  400b30:	9100635a 	add	x26, x26, #0x18
  400b34:	7100227f 	cmp	w19, #0x8
  400b38:	54ffff41 	b.ne	400b20 <__libc_start_main+0x80>  // b.any
  400b3c:	d00004b7 	adrp	x23, 496000 <__pthread_keys+0x39d0>
  400b40:	f9436ae1 	ldr	x1, [x23, #1744]
  400b44:	92750020 	and	x0, x1, #0x800
  400b48:	37580841 	tbnz	w1, #11, 400c50 <__libc_start_main+0x1b0>
  400b4c:	d00004b3 	adrp	x19, 496000 <__pthread_keys+0x39d0>
  400b50:	911ee262 	add	x2, x19, #0x7b8
  400b54:	f903de60 	str	x0, [x19, #1976]
  400b58:	d53b00e0 	mrs	x0, dczid_el0
  400b5c:	372000a0 	tbnz	w0, #4, 400b70 <__libc_start_main+0xd0>
  400b60:	12000c00 	and	w0, w0, #0xf
  400b64:	52800081 	mov	w1, #0x4                   	// #4
  400b68:	1ac02020 	lsl	w0, w1, w0
  400b6c:	b9000840 	str	w0, [x2, #8]
  400b70:	d00004b8 	adrp	x24, 496000 <__pthread_keys+0x39d0>
  400b74:	911ee27a 	add	x26, x19, #0x7b8
  400b78:	f9436ae0 	ldr	x0, [x23, #1744]
  400b7c:	f9436f01 	ldr	x1, [x24, #1752]
  400b80:	3900375f 	strb	wzr, [x26, #13]
  400b84:	d3565802 	ubfx	x2, x0, #22, #1
  400b88:	39003b42 	strb	w2, [x26, #14]
  400b8c:	39003f42 	strb	w2, [x26, #15]
  400b90:	d3514422 	ubfx	x2, x1, #17, #1
  400b94:	39003342 	strb	w2, [x26, #12]
  400b98:	37b00fa0 	tbnz	w0, #22, 400d8c <__libc_start_main+0x2ec>
  400b9c:	911ee273 	add	x19, x19, #0x7b8
  400ba0:	d36bac21 	ubfx	x1, x1, #43, #1
  400ba4:	f000047a 	adrp	x26, 48f000 <_IO_file_jumps+0xf8>
  400ba8:	f946735a 	ldr	x26, [x26, #3296]
  400bac:	39004261 	strb	w1, [x19, #16]
  400bb0:	97fffed4 	bl	400700 <_dl_relocate_static_pie>
  400bb4:	f0000473 	adrp	x19, 48f000 <_IO_file_jumps+0xf8>
  400bb8:	f946a273 	ldr	x19, [x19, #3392]
  400bbc:	eb1a027f 	cmp	x19, x26
  400bc0:	540004c2 	b.cs	400c58 <__libc_start_main+0x1b8>  // b.hs, b.nlast
  400bc4:	d280031b 	mov	x27, #0x18                  	// #24
  400bc8:	1400000d 	b	400bfc <__libc_start_main+0x15c>
  400bcc:	f9400a62 	ldr	x2, [x19, #16]
  400bd0:	91006273 	add	x19, x19, #0x18
  400bd4:	f9436ae0 	ldr	x0, [x23, #1744]
  400bd8:	a90783fb 	stp	x27, x0, [sp, #120]
  400bdc:	f9436f01 	ldr	x1, [x24, #1752]
  400be0:	f90047e1 	str	x1, [sp, #136]
  400be4:	b2420000 	orr	x0, x0, #0x4000000000000000
  400be8:	aa1903e1 	mov	x1, x25
  400bec:	d63f0040 	blr	x2
  400bf0:	f9000380 	str	x0, [x28]
  400bf4:	eb1a027f 	cmp	x19, x26
  400bf8:	54000302 	b.cs	400c58 <__libc_start_main+0x1b8>  // b.hs, b.nlast
  400bfc:	b9400a60 	ldr	w0, [x19, #8]
  400c00:	f940027c 	ldr	x28, [x19]
  400c04:	f110201f 	cmp	x0, #0x408
  400c08:	54fffe20 	b.eq	400bcc <__libc_start_main+0x12c>  // b.none
  400c0c:	d0000280 	adrp	x0, 452000 <__pthread_mutex_cond_lock_full+0x680>
  400c10:	91262000 	add	x0, x0, #0x988
  400c14:	94000313 	bl	401860 <__libc_fatal>
  400c18:	f9400341 	ldr	x1, [x26]
  400c1c:	aa1b03e2 	mov	x2, x27
  400c20:	f9400380 	ldr	x0, [x28]
  400c24:	94001b27 	bl	4078c0 <__memcmpeq>
  400c28:	35fff820 	cbnz	w0, 400b2c <__libc_start_main+0x8c>
  400c2c:	910b82e3 	add	x3, x23, #0x2e0
  400c30:	93407e73 	sxtw	x19, w19
  400c34:	d2800300 	mov	x0, #0x18                  	// #24
  400c38:	9b000e73 	madd	x19, x19, x0, x3
  400c3c:	f9400a60 	ldr	x0, [x19, #16]
  400c40:	b100041f 	cmn	x0, #0x1
  400c44:	54fff7c0 	b.eq	400b3c <__libc_start_main+0x9c>  // b.none
  400c48:	d00004b7 	adrp	x23, 496000 <__pthread_keys+0x39d0>
  400c4c:	17ffffc0 	b	400b4c <__libc_start_main+0xac>
  400c50:	d5380000 	mrs	x0, midr_el1
  400c54:	17ffffbe 	b	400b4c <__libc_start_main+0xac>
  400c58:	d0000479 	adrp	x25, 48e000 <tunable_list+0x288>
  400c5c:	94000059 	bl	400dc0 <__libc_setup_tls>
  400c60:	b0000473 	adrp	x19, 48d000 <_nl_C_LC_COLLATE+0x30>
  400c64:	f946c721 	ldr	x1, [x25, #3464]
  400c68:	f0000460 	adrp	x0, 48f000 <_IO_file_jumps+0xf8>
  400c6c:	f946f400 	ldr	x0, [x0, #3560]
  400c70:	f9400021 	ldr	x1, [x1]
  400c74:	9278dc21 	and	x1, x1, #0xffffffffffffff00
  400c78:	f906b261 	str	x1, [x19, #3424]
  400c7c:	b4000040 	cbz	x0, 400c84 <__libc_start_main+0x1e4>
  400c80:	d503201f 	nop
  400c84:	f946c720 	ldr	x0, [x25, #3464]
  400c88:	91358273 	add	x19, x19, #0xd60
  400c8c:	f9400400 	ldr	x0, [x0, #8]
  400c90:	f9000660 	str	x0, [x19, #8]
  400c94:	f94037e0 	ldr	x0, [sp, #104]
  400c98:	b4000080 	cbz	x0, 400ca8 <__libc_start_main+0x208>
  400c9c:	d2800002 	mov	x2, #0x0                   	// #0
  400ca0:	d2800001 	mov	x1, #0x0                   	// #0
  400ca4:	940001d1 	bl	4013e8 <__cxa_atexit>
  400ca8:	52800020 	mov	w0, #0x1                   	// #1
  400cac:	9400305d 	bl	40ce20 <__libc_early_init>
  400cb0:	f9433ec2 	ldr	x2, [x22, #1656]
  400cb4:	aa1503e1 	mov	x1, x21
  400cb8:	2a1403e0 	mov	w0, w20
  400cbc:	940030c9 	bl	40cfe0 <__libc_init_first>
  400cc0:	90000000 	adrp	x0, 400000 <__ehdr_start>
  400cc4:	d2800002 	mov	x2, #0x0                   	// #0
  400cc8:	91240000 	add	x0, x0, #0x900
  400ccc:	d2800001 	mov	x1, #0x0                   	// #0
  400cd0:	940001c6 	bl	4013e8 <__cxa_atexit>
  400cd4:	90000480 	adrp	x0, 490000 <.got.plt+0x18>
  400cd8:	b94ff000 	ldr	w0, [x0, #4080]
  400cdc:	35000600 	cbnz	w0, 400d9c <__libc_start_main+0x2fc>
  400ce0:	90000460 	adrp	x0, 48c000 <__FRAME_END__+0x12fc4>
  400ce4:	90000477 	adrp	x23, 48c000 <__FRAME_END__+0x12fc4>
  400ce8:	910ac000 	add	x0, x0, #0x2b0
  400cec:	910ac2f7 	add	x23, x23, #0x2b0
  400cf0:	cb170019 	sub	x25, x0, x23
  400cf4:	d2800013 	mov	x19, #0x0                   	// #0
  400cf8:	f9433ed6 	ldr	x22, [x22, #1656]
  400cfc:	9343ff39 	asr	x25, x25, #3
  400d00:	eb17001f 	cmp	x0, x23
  400d04:	54000120 	b.eq	400d28 <__libc_start_main+0x288>  // b.none
  400d08:	f8737ae3 	ldr	x3, [x23, x19, lsl #3]
  400d0c:	aa1603e2 	mov	x2, x22
  400d10:	aa1503e1 	mov	x1, x21
  400d14:	2a1403e0 	mov	w0, w20
  400d18:	91000673 	add	x19, x19, #0x1
  400d1c:	d63f0060 	blr	x3
  400d20:	eb13033f 	cmp	x25, x19
  400d24:	54ffff28 	b.hi	400d08 <__libc_start_main+0x268>  // b.pmore
  400d28:	97fffd4a 	bl	400250 <_init>
  400d2c:	90000477 	adrp	x23, 48c000 <__FRAME_END__+0x12fc4>
  400d30:	90000460 	adrp	x0, 48c000 <__FRAME_END__+0x12fc4>
  400d34:	910ac2f7 	add	x23, x23, #0x2b0
  400d38:	910b4000 	add	x0, x0, #0x2d0
  400d3c:	d2800013 	mov	x19, #0x0                   	// #0
  400d40:	cb170019 	sub	x25, x0, x23
  400d44:	9343ff39 	asr	x25, x25, #3
  400d48:	eb17001f 	cmp	x0, x23
  400d4c:	54000120 	b.eq	400d70 <__libc_start_main+0x2d0>  // b.none
  400d50:	f8737ae3 	ldr	x3, [x23, x19, lsl #3]
  400d54:	aa1603e2 	mov	x2, x22
  400d58:	aa1503e1 	mov	x1, x21
  400d5c:	2a1403e0 	mov	w0, w20
  400d60:	91000673 	add	x19, x19, #0x1
  400d64:	d63f0060 	blr	x3
  400d68:	eb13033f 	cmp	x25, x19
  400d6c:	54ffff28 	b.hi	400d50 <__libc_start_main+0x2b0>  // b.pmore
  400d70:	d2800001 	mov	x1, #0x0                   	// #0
  400d74:	d2800000 	mov	x0, #0x0                   	// #0
  400d78:	9400283c 	bl	40ae68 <_dl_debug_initialize>
  400d7c:	f94033e0 	ldr	x0, [sp, #96]
  400d80:	aa1503e2 	mov	x2, x21
  400d84:	2a1403e1 	mov	w1, w20
  400d88:	97ffff1e 	bl	400a00 <__libc_start_call_main>
  400d8c:	97fffeef 	bl	400948 <prefer_sve_ifuncs>
  400d90:	39003f40 	strb	w0, [x26, #15]
  400d94:	f9436f01 	ldr	x1, [x24, #1752]
  400d98:	17ffff81 	b	400b9c <__libc_start_main+0xfc>
  400d9c:	94003081 	bl	40cfa0 <__libc_check_standard_fds>
  400da0:	17ffffd0 	b	400ce0 <__libc_start_main+0x240>
  400da4:	d503201f 	nop
  400da8:	d503201f 	nop
  400dac:	d503201f 	nop
  400db0:	d503201f 	nop
  400db4:	d503201f 	nop
  400db8:	d503201f 	nop
  400dbc:	d503201f 	nop

0000000000400dc0 <__libc_setup_tls>:
  400dc0:	a9b77bfd 	stp	x29, x30, [sp, #-144]!
  400dc4:	f0000460 	adrp	x0, 48f000 <_IO_file_jumps+0xf8>
  400dc8:	f947ec00 	ldr	x0, [x0, #4056]
  400dcc:	910003fd 	mov	x29, sp
  400dd0:	a90153f3 	stp	x19, x20, [sp, #16]
  400dd4:	a9025bf5 	stp	x21, x22, [sp, #32]
  400dd8:	a90363f7 	stp	x23, x24, [sp, #48]
  400ddc:	a9046bf9 	stp	x25, x26, [sp, #64]
  400de0:	a90573fb 	stp	x27, x28, [sp, #80]
  400de4:	f940001c 	ldr	x28, [x0]
  400de8:	94002b06 	bl	40ba00 <__tls_pre_init_tp>
  400dec:	f0000461 	adrp	x1, 48f000 <_IO_file_jumps+0xf8>
  400df0:	f9479821 	ldr	x1, [x1, #3888]
  400df4:	f0000460 	adrp	x0, 48f000 <_IO_file_jumps+0xf8>
  400df8:	f9472800 	ldr	x0, [x0, #3664]
  400dfc:	f9400021 	ldr	x1, [x1]
  400e00:	f9400000 	ldr	x0, [x0]
  400e04:	d37df022 	lsl	x2, x1, #3
  400e08:	cb010042 	sub	x2, x2, x1
  400e0c:	8b020c02 	add	x2, x0, x2, lsl #3
  400e10:	eb02001f 	cmp	x0, x2
  400e14:	540000a3 	b.cc	400e28 <__libc_setup_tls+0x68>  // b.lo, b.ul, b.last
  400e18:	1400005d 	b	400f8c <__libc_setup_tls+0x1cc>
  400e1c:	9100e000 	add	x0, x0, #0x38
  400e20:	eb02001f 	cmp	x0, x2
  400e24:	54000b42 	b.cs	400f8c <__libc_setup_tls+0x1cc>  // b.hs, b.nlast
  400e28:	b9400001 	ldr	w1, [x0]
  400e2c:	71001c3f 	cmp	w1, #0x7
  400e30:	54ffff61 	b.ne	400e1c <__libc_setup_tls+0x5c>  // b.any
  400e34:	f9401819 	ldr	x25, [x0, #48]
  400e38:	d2800413 	mov	x19, #0x20                  	// #32
  400e3c:	f9400801 	ldr	x1, [x0, #16]
  400e40:	eb13033f 	cmp	x25, x19
  400e44:	3dc0081f 	ldr	q31, [x0, #32]
  400e48:	9a932336 	csel	x22, x25, x19, cs	// cs = hs, nlast
  400e4c:	f9400397 	ldr	x23, [x28]
  400e50:	d10006c0 	sub	x0, x22, #0x1
  400e54:	f90043e0 	str	x0, [sp, #128]
  400e58:	cb1603e0 	neg	x0, x22
  400e5c:	8b0102f7 	add	x23, x23, x1
  400e60:	3d801bff 	str	q31, [sp, #96]
  400e64:	f90047e0 	str	x0, [sp, #136]
  400e68:	d2800000 	mov	x0, #0x0                   	// #0
  400e6c:	940028e5 	bl	40b200 <_dl_tls_static_surplus_init>
  400e70:	b4000c19 	cbz	x25, 400ff0 <__libc_setup_tls+0x230>
  400e74:	91003f24 	add	x4, x25, #0xf
  400e78:	f9003ff9 	str	x25, [sp, #120]
  400e7c:	9ad90884 	udiv	x4, x4, x25
  400e80:	9b197c98 	mul	x24, x4, x25
  400e84:	aa1803fb 	mov	x27, x24
  400e88:	3dc01bff 	ldr	q31, [sp, #96]
  400e8c:	b0000494 	adrp	x20, 491000 <_IO_list_all>
  400e90:	8b1802c0 	add	x0, x22, x24
  400e94:	f944c681 	ldr	x1, [x20, #2440]
  400e98:	4e183ff5 	mov	x21, v31.d[1]
  400e9c:	fd003bff 	str	d31, [sp, #112]
  400ea0:	911d0021 	add	x1, x1, #0x740
  400ea4:	8b150021 	add	x1, x1, x21
  400ea8:	8b000020 	add	x0, x1, x0
  400eac:	94002d25 	bl	40c340 <_dl_early_allocate>
  400eb0:	aa0003e3 	mov	x3, x0
  400eb4:	b40008a0 	cbz	x0, 400fc8 <__libc_setup_tls+0x208>
  400eb8:	f94043e0 	ldr	x0, [sp, #128]
  400ebc:	911d0073 	add	x19, x3, #0x740
  400ec0:	9126229a 	add	x26, x20, #0x988
  400ec4:	d28007c7 	mov	x7, #0x3e                  	// #62
  400ec8:	8b000273 	add	x19, x19, x0
  400ecc:	91002343 	add	x3, x26, #0x8
  400ed0:	f94047e0 	ldr	x0, [sp, #136]
  400ed4:	f9000747 	str	x7, [x26, #8]
  400ed8:	f9403be2 	ldr	x2, [sp, #112]
  400edc:	8a000273 	and	x19, x19, x0
  400ee0:	f9024b9b 	str	x27, [x28, #1168]
  400ee4:	8b180260 	add	x0, x19, x24
  400ee8:	a9027c60 	stp	x0, xzr, [x3, #32]
  400eec:	aa1703e1 	mov	x1, x23
  400ef0:	97fffce4 	bl	400280 <.plt+0x10>
  400ef4:	91006340 	add	x0, x26, #0x18
  400ef8:	f9000260 	str	x0, [x19]
  400efc:	d51bd053 	msr	tpidr_el0, x19
  400f00:	94002aca 	bl	40ba28 <__tls_init_tp>
  400f04:	f9021b5c 	str	x28, [x26, #1072]
  400f08:	3dc01bff 	ldr	q31, [sp, #96]
  400f0c:	d2800021 	mov	x1, #0x1                   	// #1
  400f10:	91102340 	add	x0, x26, #0x408
  400f14:	d2800802 	mov	x2, #0x40                  	// #64
  400f18:	f9020742 	str	x2, [x26, #1032]
  400f1c:	f9023797 	str	x23, [x28, #1128]
  400f20:	f9024399 	str	x25, [x28, #1152]
  400f24:	f9024f81 	str	x1, [x28, #1176]
  400f28:	f9040f41 	str	x1, [x26, #2072]
  400f2c:	f9041340 	str	x0, [x26, #2080]
  400f30:	3d811f9f 	str	q31, [x28, #1136]
  400f34:	b4000099 	cbz	x25, 400f44 <__libc_setup_tls+0x184>
  400f38:	d1000720 	sub	x0, x25, #0x1
  400f3c:	8b150000 	add	x0, x0, x21
  400f40:	9ad90815 	udiv	x21, x0, x25
  400f44:	f9403fe1 	ldr	x1, [sp, #120]
  400f48:	f944c680 	ldr	x0, [x20, #2440]
  400f4c:	91262294 	add	x20, x20, #0x988
  400f50:	9b156035 	madd	x21, x1, x21, x24
  400f54:	9120a282 	add	x2, x20, #0x828
  400f58:	91007c00 	add	x0, x0, #0x1f
  400f5c:	d2800021 	mov	x1, #0x1                   	// #1
  400f60:	8b150000 	add	x0, x0, x21
  400f64:	927be800 	and	x0, x0, #0xffffffffffffffe0
  400f68:	a9005440 	stp	x0, x21, [x2]
  400f6c:	a9010456 	stp	x22, x1, [x2, #16]
  400f70:	a94153f3 	ldp	x19, x20, [sp, #16]
  400f74:	a9425bf5 	ldp	x21, x22, [sp, #32]
  400f78:	a94363f7 	ldp	x23, x24, [sp, #48]
  400f7c:	a9446bf9 	ldp	x25, x26, [sp, #64]
  400f80:	a94573fb 	ldp	x27, x28, [sp, #80]
  400f84:	a8c97bfd 	ldp	x29, x30, [sp], #144
  400f88:	d65f03c0 	ret
  400f8c:	d2800000 	mov	x0, #0x0                   	// #0
  400f90:	9400289c 	bl	40b200 <_dl_tls_static_surplus_init>
  400f94:	d28003e0 	mov	x0, #0x1f                  	// #31
  400f98:	f90043e0 	str	x0, [sp, #128]
  400f9c:	928003e0 	mov	x0, #0xffffffffffffffe0    	// #-32
  400fa0:	d280021b 	mov	x27, #0x10                  	// #16
  400fa4:	d2800416 	mov	x22, #0x20                  	// #32
  400fa8:	aa1b03f8 	mov	x24, x27
  400fac:	d2800019 	mov	x25, #0x0                   	// #0
  400fb0:	d2800017 	mov	x23, #0x0                   	// #0
  400fb4:	a9067fff 	stp	xzr, xzr, [sp, #96]
  400fb8:	f90047e0 	str	x0, [sp, #136]
  400fbc:	d2800020 	mov	x0, #0x1                   	// #1
  400fc0:	f9003fe0 	str	x0, [sp, #120]
  400fc4:	17ffffb1 	b	400e88 <__libc_setup_tls+0xc8>
  400fc8:	d0000281 	adrp	x1, 452000 <__pthread_mutex_cond_lock_full+0x680>
  400fcc:	d2800040 	mov	x0, #0x2                   	// #2
  400fd0:	91286021 	add	x1, x1, #0xa18
  400fd4:	d28005a2 	mov	x2, #0x2d                  	// #45
  400fd8:	d2800808 	mov	x8, #0x40                  	// #64
  400fdc:	d4000001 	svc	#0x0
  400fe0:	d2800fe0 	mov	x0, #0x7f                  	// #127
  400fe4:	d2800bc8 	mov	x8, #0x5e                  	// #94
  400fe8:	d4000001 	svc	#0x0
  400fec:	17ffffb3 	b	400eb8 <__libc_setup_tls+0xf8>
  400ff0:	d28003e0 	mov	x0, #0x1f                  	// #31
  400ff4:	f90043e0 	str	x0, [sp, #128]
  400ff8:	928003e0 	mov	x0, #0xffffffffffffffe0    	// #-32
  400ffc:	d280021b 	mov	x27, #0x10                  	// #16
  401000:	aa1303f6 	mov	x22, x19
  401004:	aa1b03f8 	mov	x24, x27
  401008:	f90047e0 	str	x0, [sp, #136]
  40100c:	d2800020 	mov	x0, #0x1                   	// #1
  401010:	f9003fe0 	str	x0, [sp, #120]
  401014:	17ffff9d 	b	400e88 <__libc_setup_tls+0xc8>
  401018:	d503201f 	nop
  40101c:	d503201f 	nop

0000000000401020 <__tls_get_addr>:
  401020:	d53bd041 	mrs	x1, tpidr_el0
  401024:	f9400400 	ldr	x0, [x0, #8]
  401028:	f9400021 	ldr	x1, [x1]
  40102c:	f9400821 	ldr	x1, [x1, #16]
  401030:	8b000020 	add	x0, x1, x0
  401034:	d65f03c0 	ret
  401038:	d503201f 	nop
  40103c:	d503201f 	nop

0000000000401040 <setjmp>:
  401040:	d503201f 	nop
  401044:	d2800021 	mov	x1, #0x1                   	// #1
  401048:	1400001f 	b	4010c4 <__sigsetjmp+0x4>
  40104c:	d503201f 	nop
  401050:	d503201f 	nop
  401054:	d503201f 	nop
  401058:	d503201f 	nop
  40105c:	d503201f 	nop
  401060:	d503201f 	nop
  401064:	d503201f 	nop
  401068:	d503201f 	nop
  40106c:	d503201f 	nop
  401070:	d503201f 	nop
  401074:	d503201f 	nop
  401078:	d503201f 	nop
  40107c:	d503201f 	nop

0000000000401080 <_setjmp>:
  401080:	d503201f 	nop
  401084:	d2800001 	mov	x1, #0x0                   	// #0
  401088:	1400000f 	b	4010c4 <__sigsetjmp+0x4>
  40108c:	d503201f 	nop
  401090:	d503201f 	nop
  401094:	d503201f 	nop
  401098:	d503201f 	nop
  40109c:	d503201f 	nop
  4010a0:	d503201f 	nop
  4010a4:	d503201f 	nop
  4010a8:	d503201f 	nop
  4010ac:	d503201f 	nop
  4010b0:	d503201f 	nop
  4010b4:	d503201f 	nop
  4010b8:	d503201f 	nop
  4010bc:	d503201f 	nop

00000000004010c0 <__sigsetjmp>:
  4010c0:	d503201f 	nop
  4010c4:	a9005013 	stp	x19, x20, [x0]
  4010c8:	a9015815 	stp	x21, x22, [x0, #16]
  4010cc:	a9026017 	stp	x23, x24, [x0, #32]
  4010d0:	a9036819 	stp	x25, x26, [x0, #48]
  4010d4:	a904701b 	stp	x27, x28, [x0, #64]
  4010d8:	90000462 	adrp	x2, 48d000 <_nl_C_LC_COLLATE+0x30>
  4010dc:	f946b443 	ldr	x3, [x2, #3432]
  4010e0:	ca0303c4 	eor	x4, x30, x3
  4010e4:	a905101d 	stp	x29, x4, [x0, #80]
  4010e8:	6d072408 	stp	d8, d9, [x0, #112]
  4010ec:	6d082c0a 	stp	d10, d11, [x0, #128]
  4010f0:	6d09340c 	stp	d12, d13, [x0, #144]
  4010f4:	6d0a3c0e 	stp	d14, d15, [x0, #160]
  4010f8:	910003e4 	mov	x4, sp
  4010fc:	90000462 	adrp	x2, 48d000 <_nl_C_LC_COLLATE+0x30>
  401100:	f946b443 	ldr	x3, [x2, #3432]
  401104:	ca030085 	eor	x5, x4, x3
  401108:	f9003405 	str	x5, [x0, #104]
  40110c:	14000005 	b	401120 <__sigjmp_save>
  401110:	d503201f 	nop
  401114:	d503201f 	nop
  401118:	d503201f 	nop
  40111c:	d503201f 	nop

0000000000401120 <__sigjmp_save>:
  401120:	a9be7bfd 	stp	x29, x30, [sp, #-32]!
  401124:	910003fd 	mov	x29, sp
  401128:	f9000bf3 	str	x19, [sp, #16]
  40112c:	aa0003f3 	mov	x19, x0
  401130:	350000c1 	cbnz	w1, 401148 <__sigjmp_save+0x28>
  401134:	52800000 	mov	w0, #0x0                   	// #0
  401138:	b900b261 	str	w1, [x19, #176]
  40113c:	f9400bf3 	ldr	x19, [sp, #16]
  401140:	a8c27bfd 	ldp	x29, x30, [sp], #32
  401144:	d65f03c0 	ret
  401148:	9102e002 	add	x2, x0, #0xb8
  40114c:	d2800001 	mov	x1, #0x0                   	// #0
  401150:	52800000 	mov	w0, #0x0                   	// #0
  401154:	9400000b 	bl	401180 <__sigprocmask>
  401158:	7100001f 	cmp	w0, #0x0
  40115c:	52800000 	mov	w0, #0x0                   	// #0
  401160:	1a9f17e1 	cset	w1, eq	// eq = none
  401164:	b900b261 	str	w1, [x19, #176]
  401168:	f9400bf3 	ldr	x19, [sp, #16]
  40116c:	a8c27bfd 	ldp	x29, x30, [sp], #32
  401170:	d65f03c0 	ret
  401174:	d503201f 	nop
  401178:	d503201f 	nop
  40117c:	d503201f 	nop

0000000000401180 <__sigprocmask>:
  401180:	a9bf7bfd 	stp	x29, x30, [sp, #-16]!
  401184:	910003fd 	mov	x29, sp
  401188:	9400025e 	bl	401b00 <__pthread_sigmask>
  40118c:	35000060 	cbnz	w0, 401198 <__sigprocmask+0x18>
  401190:	a8c17bfd 	ldp	x29, x30, [sp], #16
  401194:	d65f03c0 	ret
  401198:	d2a00001 	movz	x1, #0x0, lsl #16
  40119c:	f2800781 	movk	x1, #0x3c
  4011a0:	d53bd042 	mrs	x2, tpidr_el0
  4011a4:	b8216840 	str	w0, [x2, x1]
  4011a8:	12800000 	mov	w0, #0xffffffff            	// #-1
  4011ac:	17fffff9 	b	401190 <__sigprocmask+0x10>
  4011b0:	d503201f 	nop
  4011b4:	d503201f 	nop
  4011b8:	d503201f 	nop
  4011bc:	d503201f 	nop

00000000004011c0 <__new_exitfn>:
  4011c0:	a9be7bfd 	stp	x29, x30, [sp, #-32]!
  4011c4:	b0000481 	adrp	x1, 492000 <static_slotinfo+0x270>
  4011c8:	910003fd 	mov	x29, sp
  4011cc:	a90153f3 	stp	x19, x20, [sp, #16]
  4011d0:	aa0003f3 	mov	x19, x0
  4011d4:	3958a020 	ldrb	w0, [x1, #1576]
  4011d8:	37000620 	tbnz	w0, #0, 40129c <__new_exitfn+0xdc>
  4011dc:	f9400274 	ldr	x20, [x19]
  4011e0:	d2800006 	mov	x6, #0x0                   	// #0
  4011e4:	aa1403e5 	mov	x5, x20
  4011e8:	b4000634 	cbz	x20, 4012ac <__new_exitfn+0xec>
  4011ec:	f94004a1 	ldr	x1, [x5, #8]
  4011f0:	910040a4 	add	x4, x5, #0x10
  4011f4:	b4000121 	cbz	x1, 401218 <__new_exitfn+0x58>
  4011f8:	d503201f 	nop
  4011fc:	d503201f 	nop
  401200:	d1000422 	sub	x2, x1, #0x1
  401204:	d37be843 	lsl	x3, x2, #5
  401208:	f8636883 	ldr	x3, [x4, x3]
  40120c:	b5000123 	cbnz	x3, 401230 <__new_exitfn+0x70>
  401210:	aa0203e1 	mov	x1, x2
  401214:	b5ffff61 	cbnz	x1, 401200 <__new_exitfn+0x40>
  401218:	f94000a1 	ldr	x1, [x5]
  40121c:	f90004bf 	str	xzr, [x5, #8]
  401220:	aa0503e6 	mov	x6, x5
  401224:	b4000341 	cbz	x1, 40128c <__new_exitfn+0xcc>
  401228:	aa0103e5 	mov	x5, x1
  40122c:	17fffff0 	b	4011ec <__new_exitfn+0x2c>
  401230:	f100803f 	cmp	x1, #0x20
  401234:	540001c0 	b.eq	40126c <__new_exitfn+0xac>  // b.none
  401238:	8b0114a0 	add	x0, x5, x1, lsl #5
  40123c:	91000421 	add	x1, x1, #0x1
  401240:	91004000 	add	x0, x0, #0x10
  401244:	f90004a1 	str	x1, [x5, #8]
  401248:	b0000482 	adrp	x2, 492000 <static_slotinfo+0x270>
  40124c:	d2800021 	mov	x1, #0x1                   	// #1
  401250:	f9000001 	str	x1, [x0]
  401254:	f9410441 	ldr	x1, [x2, #520]
  401258:	a94153f3 	ldp	x19, x20, [sp, #16]
  40125c:	91000421 	add	x1, x1, #0x1
  401260:	a8c27bfd 	ldp	x29, x30, [sp], #32
  401264:	f9010441 	str	x1, [x2, #520]
  401268:	d65f03c0 	ret
  40126c:	b5000306 	cbnz	x6, 4012cc <__new_exitfn+0x10c>
  401270:	d2808201 	mov	x1, #0x410                 	// #1040
  401274:	d2800020 	mov	x0, #0x1                   	// #1
  401278:	9400168a 	bl	406ca0 <__calloc>
  40127c:	aa0003e5 	mov	x5, x0
  401280:	b40000e0 	cbz	x0, 40129c <__new_exitfn+0xdc>
  401284:	f9000014 	str	x20, [x0]
  401288:	f9000260 	str	x0, [x19]
  40128c:	d2800021 	mov	x1, #0x1                   	// #1
  401290:	910040a0 	add	x0, x5, #0x10
  401294:	f90004a1 	str	x1, [x5, #8]
  401298:	17ffffec 	b	401248 <__new_exitfn+0x88>
  40129c:	a94153f3 	ldp	x19, x20, [sp, #16]
  4012a0:	d2800000 	mov	x0, #0x0                   	// #0
  4012a4:	a8c27bfd 	ldp	x29, x30, [sp], #32
  4012a8:	d65f03c0 	ret
  4012ac:	b0000283 	adrp	x3, 452000 <__pthread_mutex_cond_lock_full+0x680>
  4012b0:	b0000281 	adrp	x1, 452000 <__pthread_mutex_cond_lock_full+0x680>
  4012b4:	b0000280 	adrp	x0, 452000 <__pthread_mutex_cond_lock_full+0x680>
  4012b8:	9129e063 	add	x3, x3, #0xa78
  4012bc:	91292021 	add	x1, x1, #0xa48
  4012c0:	91296000 	add	x0, x0, #0xa58
  4012c4:	52800dc2 	mov	w2, #0x6e                  	// #110
  4012c8:	94002f66 	bl	40d060 <__libc_assert_fail>
  4012cc:	aa0603e5 	mov	x5, x6
  4012d0:	17ffffef 	b	40128c <__new_exitfn+0xcc>
  4012d4:	d503201f 	nop
  4012d8:	d503201f 	nop
  4012dc:	d503201f 	nop

00000000004012e0 <__internal_atexit>:
  4012e0:	a9bc7bfd 	stp	x29, x30, [sp, #-64]!
  4012e4:	910003fd 	mov	x29, sp
  4012e8:	a90153f3 	stp	x19, x20, [sp, #16]
  4012ec:	a9025bf5 	stp	x21, x22, [sp, #32]
  4012f0:	a90363f7 	stp	x23, x24, [sp, #48]
  4012f4:	b40006a0 	cbz	x0, 4013c8 <__internal_atexit+0xe8>
  4012f8:	b0000493 	adrp	x19, 492000 <static_slotinfo+0x270>
  4012fc:	91082275 	add	x21, x19, #0x208
  401300:	910022b5 	add	x21, x21, #0x8
  401304:	aa0003f4 	mov	x20, x0
  401308:	aa0103f6 	mov	x22, x1
  40130c:	aa0203f7 	mov	x23, x2
  401310:	aa0303f8 	mov	x24, x3
  401314:	aa1503e2 	mov	x2, x21
  401318:	52800021 	mov	w1, #0x1                   	// #1
  40131c:	52800000 	mov	w0, #0x0                   	// #0
  401320:	94012290 	bl	449d60 <__aarch64_cas4_acq>
  401324:	35000340 	cbnz	w0, 40138c <__internal_atexit+0xac>
  401328:	aa1803e0 	mov	x0, x24
  40132c:	97ffffa5 	bl	4011c0 <__new_exitfn>
  401330:	b4000340 	cbz	x0, 401398 <__internal_atexit+0xb8>
  401334:	90000462 	adrp	x2, 48d000 <_nl_C_LC_COLLATE+0x30>
  401338:	a9015c16 	stp	x22, x23, [x0, #16]
  40133c:	d2800081 	mov	x1, #0x4                   	// #4
  401340:	f946b442 	ldr	x2, [x2, #3432]
  401344:	91082273 	add	x19, x19, #0x208
  401348:	91002273 	add	x19, x19, #0x8
  40134c:	ca020294 	eor	x20, x20, x2
  401350:	a9005001 	stp	x1, x20, [x0]
  401354:	aa1303e1 	mov	x1, x19
  401358:	52800000 	mov	w0, #0x0                   	// #0
  40135c:	9401231d 	bl	449fd0 <__aarch64_swp4_rel>
  401360:	7100041f 	cmp	w0, #0x1
  401364:	540000ec 	b.gt	401380 <__internal_atexit+0xa0>
  401368:	52800000 	mov	w0, #0x0                   	// #0
  40136c:	a94153f3 	ldp	x19, x20, [sp, #16]
  401370:	a9425bf5 	ldp	x21, x22, [sp, #32]
  401374:	a94363f7 	ldp	x23, x24, [sp, #48]
  401378:	a8c47bfd 	ldp	x29, x30, [sp], #64
  40137c:	d65f03c0 	ret
  401380:	aa1303e0 	mov	x0, x19
  401384:	9400017f 	bl	401980 <__lll_lock_wake_private>
  401388:	17fffff8 	b	401368 <__internal_atexit+0x88>
  40138c:	aa1503e0 	mov	x0, x21
  401390:	9400013c 	bl	401880 <__lll_lock_wait_private>
  401394:	17ffffe5 	b	401328 <__internal_atexit+0x48>
  401398:	91082273 	add	x19, x19, #0x208
  40139c:	91002273 	add	x19, x19, #0x8
  4013a0:	aa1303e1 	mov	x1, x19
  4013a4:	9401230b 	bl	449fd0 <__aarch64_swp4_rel>
  4013a8:	7100041f 	cmp	w0, #0x1
  4013ac:	5400006c 	b.gt	4013b8 <__internal_atexit+0xd8>
  4013b0:	12800000 	mov	w0, #0xffffffff            	// #-1
  4013b4:	17ffffee 	b	40136c <__internal_atexit+0x8c>
  4013b8:	aa1303e0 	mov	x0, x19
  4013bc:	94000171 	bl	401980 <__lll_lock_wake_private>
  4013c0:	12800000 	mov	w0, #0xffffffff            	// #-1
  4013c4:	17ffffea 	b	40136c <__internal_atexit+0x8c>
  4013c8:	b0000283 	adrp	x3, 452000 <__pthread_mutex_cond_lock_full+0x680>
  4013cc:	b0000281 	adrp	x1, 452000 <__pthread_mutex_cond_lock_full+0x680>
  4013d0:	b0000280 	adrp	x0, 452000 <__pthread_mutex_cond_lock_full+0x680>
  4013d4:	912a2063 	add	x3, x3, #0xa88
  4013d8:	91292021 	add	x1, x1, #0xa48
  4013dc:	9129a000 	add	x0, x0, #0xa68
  4013e0:	52800522 	mov	w2, #0x29                  	// #41
  4013e4:	94002f1f 	bl	40d060 <__libc_assert_fail>

00000000004013e8 <__cxa_atexit>:
  4013e8:	f0000463 	adrp	x3, 490000 <.got.plt+0x18>
  4013ec:	91010063 	add	x3, x3, #0x40
  4013f0:	17ffffbc 	b	4012e0 <__internal_atexit>
  4013f4:	d503201f 	nop
  4013f8:	d503201f 	nop
  4013fc:	d503201f 	nop

0000000000401400 <__run_exit_handlers>:
  401400:	a9ba7bfd 	stp	x29, x30, [sp, #-96]!
  401404:	12001c63 	and	w3, w3, #0xff
  401408:	d0000464 	adrp	x4, 48f000 <_IO_file_jumps+0xf8>
  40140c:	f947c084 	ldr	x4, [x4, #3968]
  401410:	910003fd 	mov	x29, sp
  401414:	a90153f3 	stp	x19, x20, [sp, #16]
  401418:	f100009f 	cmp	x4, #0x0
  40141c:	a9025bf5 	stp	x21, x22, [sp, #32]
  401420:	7a401864 	ccmp	w3, #0x0, #0x4, ne	// ne = any
  401424:	a90363f7 	stp	x23, x24, [sp, #48]
  401428:	2a0003f7 	mov	w23, w0
  40142c:	aa0103f8 	mov	x24, x1
  401430:	a9046bf9 	stp	x25, x26, [sp, #64]
  401434:	12001c59 	and	w25, w2, #0xff
  401438:	a90573fb 	stp	x27, x28, [sp, #80]
  40143c:	54000e21 	b.ne	401600 <__run_exit_handlers+0x200>  // b.any
  401440:	d0000462 	adrp	x2, 48f000 <_IO_file_jumps+0xf8>
  401444:	f9469c42 	ldr	x2, [x2, #3384]
  401448:	52800021 	mov	w1, #0x1                   	// #1
  40144c:	52800000 	mov	w0, #0x0                   	// #0
  401450:	94012244 	bl	449d60 <__aarch64_cas4_acq>
  401454:	35000e60 	cbnz	w0, 401620 <__run_exit_handlers+0x220>
  401458:	f9400313 	ldr	x19, [x24]
  40145c:	b4000533 	cbz	x19, 401500 <__run_exit_handlers+0x100>
  401460:	d0000475 	adrp	x21, 48f000 <_IO_file_jumps+0xf8>
  401464:	f9469eb5 	ldr	x21, [x21, #3384]
  401468:	b0000494 	adrp	x20, 492000 <static_slotinfo+0x270>
  40146c:	90000476 	adrp	x22, 48d000 <_nl_C_LC_COLLATE+0x30>
  401470:	f9400662 	ldr	x2, [x19, #8]
  401474:	b4000aa2 	cbz	x2, 4015c8 <__run_exit_handlers+0x1c8>
  401478:	d1000442 	sub	x2, x2, #0x1
  40147c:	f9000662 	str	x2, [x19, #8]
  401480:	f941069a 	ldr	x26, [x20, #520]
  401484:	8b021662 	add	x2, x19, x2, lsl #5
  401488:	f9400840 	ldr	x0, [x2, #16]
  40148c:	f1000c1f 	cmp	x0, #0x3
  401490:	54000800 	b.eq	401590 <__run_exit_handlers+0x190>  // b.none
  401494:	f100101f 	cmp	x0, #0x4
  401498:	54000540 	b.eq	401540 <__run_exit_handlers+0x140>  // b.none
  40149c:	f100081f 	cmp	x0, #0x2
  4014a0:	54fffe81 	b.ne	401470 <__run_exit_handlers+0x70>  // b.any
  4014a4:	a941f05b 	ldp	x27, x28, [x2, #24]
  4014a8:	aa1503e1 	mov	x1, x21
  4014ac:	f946b6c3 	ldr	x3, [x22, #3432]
  4014b0:	52800000 	mov	w0, #0x0                   	// #0
  4014b4:	ca03037b 	eor	x27, x27, x3
  4014b8:	940122c6 	bl	449fd0 <__aarch64_swp4_rel>
  4014bc:	7100041f 	cmp	w0, #0x1
  4014c0:	540009ac 	b.gt	4015f4 <__run_exit_handlers+0x1f4>
  4014c4:	aa1c03e1 	mov	x1, x28
  4014c8:	2a1703e0 	mov	w0, w23
  4014cc:	d63f0360 	blr	x27
  4014d0:	aa1503e2 	mov	x2, x21
  4014d4:	52800021 	mov	w1, #0x1                   	// #1
  4014d8:	52800000 	mov	w0, #0x0                   	// #0
  4014dc:	94012221 	bl	449d60 <__aarch64_cas4_acq>
  4014e0:	35000520 	cbnz	w0, 401584 <__run_exit_handlers+0x184>
  4014e4:	f9410680 	ldr	x0, [x20, #520]
  4014e8:	eb1a001f 	cmp	x0, x26
  4014ec:	54fffc20 	b.eq	401470 <__run_exit_handlers+0x70>  // b.none
  4014f0:	f9400313 	ldr	x19, [x24]
  4014f4:	b5fffbf3 	cbnz	x19, 401470 <__run_exit_handlers+0x70>
  4014f8:	d503201f 	nop
  4014fc:	d503201f 	nop
  401500:	d0000461 	adrp	x1, 48f000 <_IO_file_jumps+0xf8>
  401504:	f9469c21 	ldr	x1, [x1, #3384]
  401508:	b0000482 	adrp	x2, 492000 <static_slotinfo+0x270>
  40150c:	52800023 	mov	w3, #0x1                   	// #1
  401510:	52800000 	mov	w0, #0x0                   	// #0
  401514:	3918a043 	strb	w3, [x2, #1576]
  401518:	940122ae 	bl	449fd0 <__aarch64_swp4_rel>
  40151c:	7100041f 	cmp	w0, #0x1
  401520:	5400078c 	b.gt	401610 <__run_exit_handlers+0x210>
  401524:	d0000460 	adrp	x0, 48f000 <_IO_file_jumps+0xf8>
  401528:	f946e000 	ldr	x0, [x0, #3520]
  40152c:	f100001f 	cmp	x0, #0x0
  401530:	7a401b24 	ccmp	w25, #0x0, #0x4, ne	// ne = any
  401534:	540006a1 	b.ne	401608 <__run_exit_handlers+0x208>  // b.any
  401538:	2a1703e0 	mov	w0, w23
  40153c:	94002251 	bl	409e80 <_exit>
  401540:	a941f05b 	ldp	x27, x28, [x2, #24]
  401544:	f900085f 	str	xzr, [x2, #16]
  401548:	f946b6c0 	ldr	x0, [x22, #3432]
  40154c:	aa1503e1 	mov	x1, x21
  401550:	ca00037b 	eor	x27, x27, x0
  401554:	52800000 	mov	w0, #0x0                   	// #0
  401558:	9401229e 	bl	449fd0 <__aarch64_swp4_rel>
  40155c:	7100041f 	cmp	w0, #0x1
  401560:	5400044c 	b.gt	4015e8 <__run_exit_handlers+0x1e8>
  401564:	aa1c03e0 	mov	x0, x28
  401568:	2a1703e1 	mov	w1, w23
  40156c:	d63f0360 	blr	x27
  401570:	aa1503e2 	mov	x2, x21
  401574:	52800021 	mov	w1, #0x1                   	// #1
  401578:	52800000 	mov	w0, #0x0                   	// #0
  40157c:	940121f9 	bl	449d60 <__aarch64_cas4_acq>
  401580:	34fffb20 	cbz	w0, 4014e4 <__run_exit_handlers+0xe4>
  401584:	aa1503e0 	mov	x0, x21
  401588:	940000be 	bl	401880 <__lll_lock_wait_private>
  40158c:	17ffffd6 	b	4014e4 <__run_exit_handlers+0xe4>
  401590:	f9400c5b 	ldr	x27, [x2, #24]
  401594:	aa1503e1 	mov	x1, x21
  401598:	f946b6c2 	ldr	x2, [x22, #3432]
  40159c:	52800000 	mov	w0, #0x0                   	// #0
  4015a0:	ca02037b 	eor	x27, x27, x2
  4015a4:	9401228b 	bl	449fd0 <__aarch64_swp4_rel>
  4015a8:	7100041f 	cmp	w0, #0x1
  4015ac:	5400006c 	b.gt	4015b8 <__run_exit_handlers+0x1b8>
  4015b0:	d63f0360 	blr	x27
  4015b4:	17ffffc7 	b	4014d0 <__run_exit_handlers+0xd0>
  4015b8:	aa1503e0 	mov	x0, x21
  4015bc:	940000f1 	bl	401980 <__lll_lock_wake_private>
  4015c0:	d63f0360 	blr	x27
  4015c4:	17ffffc3 	b	4014d0 <__run_exit_handlers+0xd0>
  4015c8:	f9400260 	ldr	x0, [x19]
  4015cc:	f9000300 	str	x0, [x24]
  4015d0:	b4fff980 	cbz	x0, 401500 <__run_exit_handlers+0x100>
  4015d4:	aa1303e0 	mov	x0, x19
  4015d8:	9400135e 	bl	406350 <__free>
  4015dc:	f9400313 	ldr	x19, [x24]
  4015e0:	b5fff493 	cbnz	x19, 401470 <__run_exit_handlers+0x70>
  4015e4:	17ffffc7 	b	401500 <__run_exit_handlers+0x100>
  4015e8:	aa1503e0 	mov	x0, x21
  4015ec:	940000e5 	bl	401980 <__lll_lock_wake_private>
  4015f0:	17ffffdd 	b	401564 <__run_exit_handlers+0x164>
  4015f4:	aa1503e0 	mov	x0, x21
  4015f8:	940000e2 	bl	401980 <__lll_lock_wake_private>
  4015fc:	17ffffb2 	b	4014c4 <__run_exit_handlers+0xc4>
  401600:	d503201f 	nop
  401604:	17ffff8f 	b	401440 <__run_exit_handlers+0x40>
  401608:	9400580f 	bl	417644 <_IO_cleanup>
  40160c:	17ffffcb 	b	401538 <__run_exit_handlers+0x138>
  401610:	d0000460 	adrp	x0, 48f000 <_IO_file_jumps+0xf8>
  401614:	f9469c00 	ldr	x0, [x0, #3384]
  401618:	940000da 	bl	401980 <__lll_lock_wake_private>
  40161c:	17ffffc2 	b	401524 <__run_exit_handlers+0x124>
  401620:	d0000460 	adrp	x0, 48f000 <_IO_file_jumps+0xf8>
  401624:	f9469c00 	ldr	x0, [x0, #3384]
  401628:	94000096 	bl	401880 <__lll_lock_wait_private>
  40162c:	17ffff8b 	b	401458 <__run_exit_handlers+0x58>

0000000000401630 <exit>:
  401630:	a9bf7bfd 	stp	x29, x30, [sp, #-16]!
  401634:	f0000461 	adrp	x1, 490000 <.got.plt+0x18>
  401638:	52800023 	mov	w3, #0x1                   	// #1
  40163c:	910003fd 	mov	x29, sp
  401640:	91010021 	add	x1, x1, #0x40
  401644:	2a0303e2 	mov	w2, w3
  401648:	97ffff6e 	bl	401400 <__run_exit_handlers>
  40164c:	d503201f 	nop
  401650:	d503201f 	nop
  401654:	d503201f 	nop
  401658:	d503201f 	nop
  40165c:	d503201f 	nop

0000000000401660 <__libc_message_impl>:
  401660:	a9ae7bfd 	stp	x29, x30, [sp, #-288]!
  401664:	910003fd 	mov	x29, sp
  401668:	a90153f3 	stp	x19, x20, [sp, #16]
  40166c:	aa0003f4 	mov	x20, x0
  401670:	128006e0 	mov	w0, #0xffffffc8            	// #-56
  401674:	a9025bf5 	stp	x21, x22, [sp, #32]
  401678:	a90363f7 	stp	x23, x24, [sp, #48]
  40167c:	f90023f9 	str	x25, [sp, #64]
  401680:	290d7fe0 	stp	w0, wzr, [sp, #104]
  401684:	a90e8be1 	stp	x1, x2, [sp, #232]
  401688:	910383e1 	add	x1, sp, #0xe0
  40168c:	910483e2 	add	x2, sp, #0x120
  401690:	a90f93e3 	stp	x3, x4, [sp, #248]
  401694:	a9109be5 	stp	x5, x6, [sp, #264]
  401698:	f9008fe7 	str	x7, [sp, #280]
  40169c:	f90033e1 	str	x1, [sp, #96]
  4016a0:	39400295 	ldrb	w21, [x20]
  4016a4:	a9050be2 	stp	x2, x2, [sp, #80]
  4016a8:	34000cd5 	cbz	w21, 401840 <__libc_message_impl+0x1e0>
  4016ac:	9101c3f3 	add	x19, sp, #0x70
  4016b0:	d2800019 	mov	x25, #0x0                   	// #0
  4016b4:	aa1303f6 	mov	x22, x19
  4016b8:	aa1303f7 	mov	x23, x19
  4016bc:	52800018 	mov	w24, #0x0                   	// #0
  4016c0:	2a1503e1 	mov	w1, w21
  4016c4:	aa1403e0 	mov	x0, x20
  4016c8:	14000006 	b	4016e0 <__libc_message_impl+0x80>
  4016cc:	528004a1 	mov	w1, #0x25                  	// #37
  4016d0:	91000400 	add	x0, x0, #0x1
  4016d4:	9400198b 	bl	407d00 <__strchrnul>
  4016d8:	39400001 	ldrb	w1, [x0]
  4016dc:	340000c1 	cbz	w1, 4016f4 <__libc_message_impl+0x94>
  4016e0:	7100943f 	cmp	w1, #0x25
  4016e4:	54ffff41 	b.ne	4016cc <__libc_message_impl+0x6c>  // b.any
  4016e8:	39400401 	ldrb	w1, [x0, #1]
  4016ec:	7101cc3f 	cmp	w1, #0x73
  4016f0:	54fffee1 	b.ne	4016cc <__libc_message_impl+0x6c>  // b.any
  4016f4:	710096bf 	cmp	w21, #0x25
  4016f8:	54000160 	b.eq	401724 <__libc_message_impl+0xc4>  // b.none
  4016fc:	cb140001 	sub	x1, x0, x20
  401700:	aa1403f5 	mov	x21, x20
  401704:	aa0003f4 	mov	x20, x0
  401708:	a88106f5 	stp	x21, x1, [x23], #16
  40170c:	8b010339 	add	x25, x25, x1
  401710:	11000700 	add	w0, w24, #0x1
  401714:	39400295 	ldrb	w21, [x20]
  401718:	340002d5 	cbz	w21, 401770 <__libc_message_impl+0x110>
  40171c:	2a0003f8 	mov	w24, w0
  401720:	17ffffe8 	b	4016c0 <__libc_message_impl+0x60>
  401724:	39400681 	ldrb	w1, [x20, #1]
  401728:	7101cc3f 	cmp	w1, #0x73
  40172c:	54fffe81 	b.ne	4016fc <__libc_message_impl+0x9c>  // b.any
  401730:	b9406be1 	ldr	w1, [sp, #104]
  401734:	f9402be0 	ldr	x0, [sp, #80]
  401738:	37f80861 	tbnz	w1, #31, 401844 <__libc_message_impl+0x1e4>
  40173c:	91003c01 	add	x1, x0, #0xf
  401740:	927df021 	and	x1, x1, #0xfffffffffffffff8
  401744:	f9002be1 	str	x1, [sp, #80]
  401748:	f9400015 	ldr	x21, [x0]
  40174c:	91000a94 	add	x20, x20, #0x2
  401750:	aa1503e0 	mov	x0, x21
  401754:	97fffad7 	bl	4002b0 <.plt+0x40>
  401758:	aa0003e1 	mov	x1, x0
  40175c:	a88106f5 	stp	x21, x1, [x23], #16
  401760:	8b010339 	add	x25, x25, x1
  401764:	39400295 	ldrb	w21, [x20]
  401768:	11000700 	add	w0, w24, #0x1
  40176c:	35fffd95 	cbnz	w21, 40171c <__libc_message_impl+0xbc>
  401770:	93407c02 	sxtw	x2, w0
  401774:	d503201f 	nop
  401778:	d503201f 	nop
  40177c:	d503201f 	nop
  401780:	aa1303e1 	mov	x1, x19
  401784:	d2800040 	mov	x0, #0x2                   	// #2
  401788:	d2800848 	mov	x8, #0x42                  	// #66
  40178c:	d4000001 	svc	#0x0
  401790:	b100101f 	cmn	x0, #0x4
  401794:	54ffff60 	b.eq	401780 <__libc_message_impl+0x120>  // b.none
  401798:	d0000461 	adrp	x1, 48f000 <_IO_file_jumps+0xf8>
  40179c:	f947d421 	ldr	x1, [x1, #4008]
  4017a0:	d2800005 	mov	x5, #0x0                   	// #0
  4017a4:	12800004 	mov	w4, #0xffffffff            	// #-1
  4017a8:	52800443 	mov	w3, #0x22                  	// #34
  4017ac:	52800062 	mov	w2, #0x3                   	// #3
  4017b0:	d2800000 	mov	x0, #0x0                   	// #0
  4017b4:	f9400021 	ldr	x1, [x1]
  4017b8:	8b010334 	add	x20, x25, x1
  4017bc:	cb0103e1 	neg	x1, x1
  4017c0:	8a010294 	and	x20, x20, x1
  4017c4:	aa1403e1 	mov	x1, x20
  4017c8:	940023b6 	bl	40a6a0 <__mmap64>
  4017cc:	aa0003f5 	mov	x21, x0
  4017d0:	b100041f 	cmn	x0, #0x1
  4017d4:	54000360 	b.eq	401840 <__libc_message_impl+0x1e0>  // b.none
  4017d8:	91004273 	add	x19, x19, #0x10
  4017dc:	b8004414 	str	w20, [x0], #4
  4017e0:	8b385278 	add	x24, x19, w24, uxtw #4
  4017e4:	14000002 	b	4017ec <__libc_message_impl+0x18c>
  4017e8:	91004273 	add	x19, x19, #0x10
  4017ec:	a9400ac1 	ldp	x1, x2, [x22]
  4017f0:	97fffaa4 	bl	400280 <.plt+0x10>
  4017f4:	aa0003e1 	mov	x1, x0
  4017f8:	f94006c2 	ldr	x2, [x22, #8]
  4017fc:	aa1303f6 	mov	x22, x19
  401800:	8b020000 	add	x0, x0, x2
  401804:	eb18027f 	cmp	x19, x24
  401808:	54ffff01 	b.ne	4017e8 <__libc_message_impl+0x188>  // b.any
  40180c:	3822683f 	strb	wzr, [x1, x2]
  401810:	b0000282 	adrp	x2, 452000 <__pthread_mutex_cond_lock_full+0x680>
  401814:	912a8042 	add	x2, x2, #0xaa0
  401818:	aa1403e1 	mov	x1, x20
  40181c:	aa1503e0 	mov	x0, x21
  401820:	94002440 	bl	40a920 <__set_vma_name>
  401824:	b0000481 	adrp	x1, 492000 <static_slotinfo+0x270>
  401828:	aa1503e0 	mov	x0, x21
  40182c:	91080021 	add	x1, x1, #0x200
  401830:	940121dc 	bl	449fa0 <__aarch64_swp8_acq>
  401834:	b4000060 	cbz	x0, 401840 <__libc_message_impl+0x1e0>
  401838:	b9400001 	ldr	w1, [x0]
  40183c:	940023c1 	bl	40a740 <__munmap>
  401840:	97fffaa0 	bl	4002c0 <abort>
  401844:	11002022 	add	w2, w1, #0x8
  401848:	b9006be2 	str	w2, [sp, #104]
  40184c:	7100005f 	cmp	w2, #0x0
  401850:	54fff76c 	b.gt	40173c <__libc_message_impl+0xdc>
  401854:	f9402fe0 	ldr	x0, [sp, #88]
  401858:	8b21c000 	add	x0, x0, w1, sxtw
  40185c:	17ffffbb 	b	401748 <__libc_message_impl+0xe8>

0000000000401860 <__libc_fatal>:
  401860:	a9bf7bfd 	stp	x29, x30, [sp, #-16]!
  401864:	b0000282 	adrp	x2, 452000 <__pthread_mutex_cond_lock_full+0x680>
  401868:	aa0003e1 	mov	x1, x0
  40186c:	910003fd 	mov	x29, sp
  401870:	912ac040 	add	x0, x2, #0xab0
  401874:	97ffff7b 	bl	401660 <__libc_message_impl>
  401878:	d503201f 	nop
  40187c:	d503201f 	nop

0000000000401880 <__lll_lock_wait_private>:
  401880:	a9be7bfd 	stp	x29, x30, [sp, #-32]!
  401884:	910003fd 	mov	x29, sp
  401888:	f9000bf3 	str	x19, [sp, #16]
  40188c:	aa0003f3 	mov	x19, x0
  401890:	b9400000 	ldr	w0, [x0]
  401894:	7100081f 	cmp	w0, #0x2
  401898:	540000a0 	b.eq	4018ac <__lll_lock_wait_private+0x2c>  // b.none
  40189c:	aa1303e1 	mov	x1, x19
  4018a0:	52800040 	mov	w0, #0x2                   	// #2
  4018a4:	9401218f 	bl	449ee0 <__aarch64_swp4_acq>
  4018a8:	34000200 	cbz	w0, 4018e8 <__lll_lock_wait_private+0x68>
  4018ac:	aa1303e0 	mov	x0, x19
  4018b0:	d2801001 	mov	x1, #0x80                  	// #128
  4018b4:	d2800042 	mov	x2, #0x2                   	// #2
  4018b8:	d2800003 	mov	x3, #0x0                   	// #0
  4018bc:	d2800c48 	mov	x8, #0x62                  	// #98
  4018c0:	d4000001 	svc	#0x0
  4018c4:	b140041f 	cmn	x0, #0x1, lsl #12
  4018c8:	54fffea9 	b.ls	40189c <__lll_lock_wait_private+0x1c>  // b.plast
  4018cc:	31002c1f 	cmn	w0, #0xb
  4018d0:	54fffe60 	b.eq	40189c <__lll_lock_wait_private+0x1c>  // b.none
  4018d4:	3100101f 	cmn	w0, #0x4
  4018d8:	54fffe20 	b.eq	40189c <__lll_lock_wait_private+0x1c>  // b.none
  4018dc:	b0000280 	adrp	x0, 452000 <__pthread_mutex_cond_lock_full+0x680>
  4018e0:	912ae000 	add	x0, x0, #0xab8
  4018e4:	97ffffdf 	bl	401860 <__libc_fatal>
  4018e8:	f9400bf3 	ldr	x19, [sp, #16]
  4018ec:	a8c27bfd 	ldp	x29, x30, [sp], #32
  4018f0:	d65f03c0 	ret
  4018f4:	d503201f 	nop
  4018f8:	d503201f 	nop
  4018fc:	d503201f 	nop

0000000000401900 <__lll_lock_wait>:
  401900:	a9be7bfd 	stp	x29, x30, [sp, #-32]!
  401904:	910003fd 	mov	x29, sp
  401908:	a90153f3 	stp	x19, x20, [sp, #16]
  40190c:	aa0003f3 	mov	x19, x0
  401910:	2a0103f4 	mov	w20, w1
  401914:	b9400000 	ldr	w0, [x0]
  401918:	7100081f 	cmp	w0, #0x2
  40191c:	540000a0 	b.eq	401930 <__lll_lock_wait+0x30>  // b.none
  401920:	aa1303e1 	mov	x1, x19
  401924:	52800040 	mov	w0, #0x2                   	// #2
  401928:	9401216e 	bl	449ee0 <__aarch64_swp4_acq>
  40192c:	34000220 	cbz	w0, 401970 <__lll_lock_wait+0x70>
  401930:	52190281 	eor	w1, w20, #0x80
  401934:	aa1303e0 	mov	x0, x19
  401938:	d2800042 	mov	x2, #0x2                   	// #2
  40193c:	d2800003 	mov	x3, #0x0                   	// #0
  401940:	93407c21 	sxtw	x1, w1
  401944:	d2800c48 	mov	x8, #0x62                  	// #98
  401948:	d4000001 	svc	#0x0
  40194c:	b140041f 	cmn	x0, #0x1, lsl #12
  401950:	54fffe89 	b.ls	401920 <__lll_lock_wait+0x20>  // b.plast
  401954:	31002c1f 	cmn	w0, #0xb
  401958:	54fffe40 	b.eq	401920 <__lll_lock_wait+0x20>  // b.none
  40195c:	3100101f 	cmn	w0, #0x4
  401960:	54fffe00 	b.eq	401920 <__lll_lock_wait+0x20>  // b.none
  401964:	b0000280 	adrp	x0, 452000 <__pthread_mutex_cond_lock_full+0x680>
  401968:	912ae000 	add	x0, x0, #0xab8
  40196c:	97ffffbd 	bl	401860 <__libc_fatal>
  401970:	a94153f3 	ldp	x19, x20, [sp, #16]
  401974:	a8c27bfd 	ldp	x29, x30, [sp], #32
  401978:	d65f03c0 	ret
  40197c:	d503201f 	nop

0000000000401980 <__lll_lock_wake_private>:
  401980:	d2801021 	mov	x1, #0x81                  	// #129
  401984:	d2800022 	mov	x2, #0x1                   	// #1
  401988:	d2800003 	mov	x3, #0x0                   	// #0
  40198c:	d2800c48 	mov	x8, #0x62                  	// #98
  401990:	d4000001 	svc	#0x0
  401994:	d65f03c0 	ret
  401998:	d503201f 	nop
  40199c:	d503201f 	nop

00000000004019a0 <__lll_lock_wake>:
  4019a0:	52801022 	mov	w2, #0x81                  	// #129
  4019a4:	4a020021 	eor	w1, w1, w2
  4019a8:	d2800003 	mov	x3, #0x0                   	// #0
  4019ac:	d2800022 	mov	x2, #0x1                   	// #1
  4019b0:	d2800c48 	mov	x8, #0x62                  	// #98
  4019b4:	93407c21 	sxtw	x1, w1
  4019b8:	d4000001 	svc	#0x0
  4019bc:	d65f03c0 	ret

00000000004019c0 <__nptl_deallocate_tsd>:
  4019c0:	a9b97bfd 	stp	x29, x30, [sp, #-112]!
  4019c4:	910003fd 	mov	x29, sp
  4019c8:	a90363f7 	stp	x23, x24, [sp, #48]
  4019cc:	d53bd058 	mrs	x24, tpidr_el0
  4019d0:	a9046bf9 	stp	x25, x26, [sp, #64]
  4019d4:	d11d0319 	sub	x25, x24, #0x740
  4019d8:	39504320 	ldrb	w0, [x25, #1040]
  4019dc:	360007c0 	tbz	w0, #0, 401ad4 <__nptl_deallocate_tsd+0x114>
  4019e0:	a90573fb 	stp	x27, x28, [sp, #80]
  4019e4:	d110c31c 	sub	x28, x24, #0x430
  4019e8:	d2800080 	mov	x0, #0x4                   	// #4
  4019ec:	b000049b 	adrp	x27, 492000 <static_slotinfo+0x270>
  4019f0:	a90153f3 	stp	x19, x20, [sp, #16]
  4019f4:	a9025bf5 	stp	x21, x22, [sp, #32]
  4019f8:	f90037e0 	str	x0, [sp, #104]
  4019fc:	aa1c03f6 	mov	x22, x28
  401a00:	9118c377 	add	x23, x27, #0x630
  401a04:	d2800415 	mov	x21, #0x20                  	// #32
  401a08:	3910433f 	strb	wzr, [x25, #1040]
  401a0c:	14000006 	b	401a24 <__nptl_deallocate_tsd+0x64>
  401a10:	910082b5 	add	x21, x21, #0x20
  401a14:	910022d6 	add	x22, x22, #0x8
  401a18:	910802f7 	add	x23, x23, #0x200
  401a1c:	f11082bf 	cmp	x21, #0x420
  401a20:	540002c0 	b.eq	401a78 <__nptl_deallocate_tsd+0xb8>  // b.none
  401a24:	f94002c3 	ldr	x3, [x22]
  401a28:	b4ffff43 	cbz	x3, 401a10 <__nptl_deallocate_tsd+0x50>
  401a2c:	91002073 	add	x19, x3, #0x8
  401a30:	9108207a 	add	x26, x3, #0x208
  401a34:	aa1703f4 	mov	x20, x23
  401a38:	14000005 	b	401a4c <__nptl_deallocate_tsd+0x8c>
  401a3c:	91004273 	add	x19, x19, #0x10
  401a40:	91004294 	add	x20, x20, #0x10
  401a44:	eb1a027f 	cmp	x19, x26
  401a48:	54fffe40 	b.eq	401a10 <__nptl_deallocate_tsd+0x50>  // b.none
  401a4c:	f9400260 	ldr	x0, [x19]
  401a50:	b4ffff60 	cbz	x0, 401a3c <__nptl_deallocate_tsd+0x7c>
  401a54:	f85f8262 	ldur	x2, [x19, #-8]
  401a58:	f9400281 	ldr	x1, [x20]
  401a5c:	f900027f 	str	xzr, [x19]
  401a60:	eb01005f 	cmp	x2, x1
  401a64:	54fffec1 	b.ne	401a3c <__nptl_deallocate_tsd+0x7c>  // b.any
  401a68:	f9400681 	ldr	x1, [x20, #8]
  401a6c:	b4fffe81 	cbz	x1, 401a3c <__nptl_deallocate_tsd+0x7c>
  401a70:	d63f0020 	blr	x1
  401a74:	17fffff2 	b	401a3c <__nptl_deallocate_tsd+0x7c>
  401a78:	39504320 	ldrb	w0, [x25, #1040]
  401a7c:	36000120 	tbz	w0, #0, 401aa0 <__nptl_deallocate_tsd+0xe0>
  401a80:	f94037e0 	ldr	x0, [sp, #104]
  401a84:	f1000400 	subs	x0, x0, #0x1
  401a88:	f90037e0 	str	x0, [sp, #104]
  401a8c:	54fffb81 	b.ne	4019fc <__nptl_deallocate_tsd+0x3c>  // b.any
  401a90:	d118c300 	sub	x0, x24, #0x630
  401a94:	d2804002 	mov	x2, #0x200                 	// #512
  401a98:	52800001 	mov	w1, #0x0                   	// #0
  401a9c:	97fffa01 	bl	4002a0 <.plt+0x30>
  401aa0:	d110a313 	sub	x19, x24, #0x428
  401aa4:	d10cc318 	sub	x24, x24, #0x330
  401aa8:	f9400260 	ldr	x0, [x19]
  401aac:	b4000060 	cbz	x0, 401ab8 <__nptl_deallocate_tsd+0xf8>
  401ab0:	94001228 	bl	406350 <__free>
  401ab4:	f900027f 	str	xzr, [x19]
  401ab8:	91002273 	add	x19, x19, #0x8
  401abc:	eb18027f 	cmp	x19, x24
  401ac0:	54ffff41 	b.ne	401aa8 <__nptl_deallocate_tsd+0xe8>  // b.any
  401ac4:	3910433f 	strb	wzr, [x25, #1040]
  401ac8:	a94153f3 	ldp	x19, x20, [sp, #16]
  401acc:	a9425bf5 	ldp	x21, x22, [sp, #32]
  401ad0:	a94573fb 	ldp	x27, x28, [sp, #80]
  401ad4:	a94363f7 	ldp	x23, x24, [sp, #48]
  401ad8:	a9446bf9 	ldp	x25, x26, [sp, #64]
  401adc:	a8c77bfd 	ldp	x29, x30, [sp], #112
  401ae0:	d65f03c0 	ret
  401ae4:	d503201f 	nop
  401ae8:	d503201f 	nop
  401aec:	d503201f 	nop
  401af0:	d503201f 	nop
  401af4:	d503201f 	nop
  401af8:	d503201f 	nop
  401afc:	d503201f 	nop

0000000000401b00 <__pthread_sigmask>:
  401b00:	aa0103e3 	mov	x3, x1
  401b04:	d2800001 	mov	x1, #0x0                   	// #0
  401b08:	b40000a3 	cbz	x3, 401b1c <__pthread_sigmask+0x1c>
  401b0c:	f9400064 	ldr	x4, [x3]
  401b10:	f261049f 	tst	x4, #0x180000000
  401b14:	54000121 	b.ne	401b38 <__pthread_sigmask+0x38>  // b.any
  401b18:	aa0303e1 	mov	x1, x3
  401b1c:	93407c00 	sxtw	x0, w0
  401b20:	d2800103 	mov	x3, #0x8                   	// #8
  401b24:	d28010e8 	mov	x8, #0x87                  	// #135
  401b28:	d4000001 	svc	#0x0
  401b2c:	3140041f 	cmn	w0, #0x1, lsl #12
  401b30:	5a8097e0 	csneg	w0, wzr, w0, ls	// ls = plast
  401b34:	d65f03c0 	ret
  401b38:	ad40787f 	ldp	q31, q30, [x3]
  401b3c:	d10203ff 	sub	sp, sp, #0x80
  401b40:	925ff484 	and	x4, x4, #0xfffffffe7fffffff
  401b44:	910003e1 	mov	x1, sp
  401b48:	93407c00 	sxtw	x0, w0
  401b4c:	d28010e8 	mov	x8, #0x87                  	// #135
  401b50:	ad007bff 	stp	q31, q30, [sp]
  401b54:	ad41787f 	ldp	q31, q30, [x3, #32]
  401b58:	f90003e4 	str	x4, [sp]
  401b5c:	ad42707d 	ldp	q29, q28, [x3, #64]
  401b60:	ad017bff 	stp	q31, q30, [sp, #32]
  401b64:	ad43787f 	ldp	q31, q30, [x3, #96]
  401b68:	d2800103 	mov	x3, #0x8                   	// #8
  401b6c:	ad0273fd 	stp	q29, q28, [sp, #64]
  401b70:	ad037bff 	stp	q31, q30, [sp, #96]
  401b74:	d4000001 	svc	#0x0
  401b78:	3140041f 	cmn	w0, #0x1, lsl #12
  401b7c:	910203ff 	add	sp, sp, #0x80
  401b80:	5a8097e0 	csneg	w0, wzr, w0, ls	// ls = plast
  401b84:	d65f03c0 	ret
  401b88:	d503201f 	nop
  401b8c:	d503201f 	nop
  401b90:	d503201f 	nop
  401b94:	d503201f 	nop
  401b98:	d503201f 	nop
  401b9c:	d503201f 	nop

0000000000401ba0 <_dl_tunable_set_mmap_threshold>:
  401ba0:	f0000461 	adrp	x1, 490000 <.got.plt+0x18>
  401ba4:	91014021 	add	x1, x1, #0x50
  401ba8:	f9400000 	ldr	x0, [x0]
  401bac:	52800022 	mov	w2, #0x1                   	// #1
  401bb0:	f9000820 	str	x0, [x1, #16]
  401bb4:	b9004822 	str	w2, [x1, #72]
  401bb8:	d65f03c0 	ret
  401bbc:	d503201f 	nop

0000000000401bc0 <_dl_tunable_set_mmaps_max>:
  401bc0:	f0000461 	adrp	x1, 490000 <.got.plt+0x18>
  401bc4:	91014021 	add	x1, x1, #0x50
  401bc8:	f9400000 	ldr	x0, [x0]
  401bcc:	52800022 	mov	w2, #0x1                   	// #1
  401bd0:	b9004020 	str	w0, [x1, #64]
  401bd4:	b9004822 	str	w2, [x1, #72]
  401bd8:	d65f03c0 	ret
  401bdc:	d503201f 	nop

0000000000401be0 <_dl_tunable_set_top_pad>:
  401be0:	f0000461 	adrp	x1, 490000 <.got.plt+0x18>
  401be4:	91014021 	add	x1, x1, #0x50
  401be8:	f9400000 	ldr	x0, [x0]
  401bec:	52800022 	mov	w2, #0x1                   	// #1
  401bf0:	f9000420 	str	x0, [x1, #8]
  401bf4:	b9004822 	str	w2, [x1, #72]
  401bf8:	d65f03c0 	ret
  401bfc:	d503201f 	nop

0000000000401c00 <_dl_tunable_set_perturb_byte>:
  401c00:	b00004a1 	adrp	x1, 496000 <__pthread_keys+0x39d0>
  401c04:	f9400000 	ldr	x0, [x0]
  401c08:	b9063020 	str	w0, [x1, #1584]
  401c0c:	d65f03c0 	ret

0000000000401c10 <_dl_tunable_set_trim_threshold>:
  401c10:	f0000461 	adrp	x1, 490000 <.got.plt+0x18>
  401c14:	91014022 	add	x2, x1, #0x50
  401c18:	f9400000 	ldr	x0, [x0]
  401c1c:	52800023 	mov	w3, #0x1                   	// #1
  401c20:	f9002820 	str	x0, [x1, #80]
  401c24:	b9004843 	str	w3, [x2, #72]
  401c28:	d65f03c0 	ret

0000000000401c2c <_dl_tunable_set_arena_max>:
  401c2c:	f0000461 	adrp	x1, 490000 <.got.plt+0x18>
  401c30:	f9400000 	ldr	x0, [x0]
  401c34:	f9003820 	str	x0, [x1, #112]
  401c38:	d65f03c0 	ret
  401c3c:	d503201f 	nop

0000000000401c40 <_dl_tunable_set_arena_test>:
  401c40:	f0000461 	adrp	x1, 490000 <.got.plt+0x18>
  401c44:	f9400000 	ldr	x0, [x0]
  401c48:	f9003420 	str	x0, [x1, #104]
  401c4c:	d65f03c0 	ret

0000000000401c50 <_dl_tunable_set_tcache_max>:
  401c50:	f9400001 	ldr	x1, [x0]
  401c54:	f110203f 	cmp	x1, #0x408
  401c58:	54000049 	b.ls	401c60 <_dl_tunable_set_tcache_max+0x10>  // b.plast
  401c5c:	d65f03c0 	ret
  401c60:	91005c23 	add	x3, x1, #0x17
  401c64:	f0000462 	adrp	x2, 490000 <.got.plt+0x18>
  401c68:	927cec60 	and	x0, x3, #0xfffffffffffffff0
  401c6c:	91014042 	add	x2, x2, #0x50
  401c70:	d1004400 	sub	x0, x0, #0x11
  401c74:	f1007c7f 	cmp	x3, #0x1f
  401c78:	d344fc00 	lsr	x0, x0, #4
  401c7c:	91000400 	add	x0, x0, #0x1
  401c80:	9a9f8400 	csinc	x0, x0, xzr, hi	// hi = pmore
  401c84:	a9068440 	stp	x0, x1, [x2, #104]
  401c88:	d65f03c0 	ret

0000000000401c8c <_dl_tunable_set_tcache_count>:
  401c8c:	f9400000 	ldr	x0, [x0]
  401c90:	d29fffe1 	mov	x1, #0xffff                	// #65535
  401c94:	eb01001f 	cmp	x0, x1
  401c98:	54000049 	b.ls	401ca0 <_dl_tunable_set_tcache_count+0x14>  // b.plast
  401c9c:	d65f03c0 	ret
  401ca0:	f0000461 	adrp	x1, 490000 <.got.plt+0x18>
  401ca4:	f9006420 	str	x0, [x1, #200]
  401ca8:	d65f03c0 	ret

0000000000401cac <_dl_tunable_set_tcache_unsorted_limit>:
  401cac:	f0000461 	adrp	x1, 490000 <.got.plt+0x18>
  401cb0:	f9400000 	ldr	x0, [x0]
  401cb4:	f9006820 	str	x0, [x1, #208]
  401cb8:	d65f03c0 	ret
  401cbc:	d503201f 	nop

0000000000401cc0 <_dl_tunable_set_mxfast>:
  401cc0:	f9400000 	ldr	x0, [x0]
  401cc4:	f102801f 	cmp	x0, #0xa0
  401cc8:	54000049 	b.ls	401cd0 <_dl_tunable_set_mxfast+0x10>  // b.plast
  401ccc:	d65f03c0 	ret
  401cd0:	11002001 	add	w1, w0, #0x8
  401cd4:	b00004a2 	adrp	x2, 496000 <__pthread_keys+0x39d0>
  401cd8:	f1001c1f 	cmp	x0, #0x7
  401cdc:	121c0c20 	and	w0, w1, #0xf0
  401ce0:	52800201 	mov	w1, #0x10                  	// #16
  401ce4:	1a818000 	csel	w0, w0, w1, hi	// hi = pmore
  401ce8:	3918d040 	strb	w0, [x2, #1588]
  401cec:	d65f03c0 	ret

0000000000401cf0 <malloc_printerr>:
  401cf0:	a9bf7bfd 	stp	x29, x30, [sp, #-16]!
  401cf4:	f0000282 	adrp	x2, 454000 <__PRETTY_FUNCTION__.0+0x38>
  401cf8:	aa0003e1 	mov	x1, x0
  401cfc:	910003fd 	mov	x29, sp
  401d00:	9133a040 	add	x0, x2, #0xce8
  401d04:	97fffe57 	bl	401660 <__libc_message_impl>

0000000000401d08 <int_mallinfo>:
  401d08:	91004005 	add	x5, x0, #0x10
  401d0c:	91018006 	add	x6, x0, #0x60
  401d10:	52800007 	mov	w7, #0x0                   	// #0
  401d14:	d2800008 	mov	x8, #0x0                   	// #0
  401d18:	f94000a2 	ldr	x2, [x5]
  401d1c:	b5000142 	cbnz	x2, 401d44 <int_mallinfo+0x3c>
  401d20:	14000010 	b	401d60 <int_mallinfo+0x58>
  401d24:	91004044 	add	x4, x2, #0x10
  401d28:	110004e7 	add	w7, w7, #0x1
  401d2c:	a9408c42 	ldp	x2, x3, [x2, #8]
  401d30:	927df042 	and	x2, x2, #0xfffffffffffffff8
  401d34:	8b020108 	add	x8, x8, x2
  401d38:	ca443062 	eor	x2, x3, x4, lsr #12
  401d3c:	eb44307f 	cmp	x3, x4, lsr #12
  401d40:	54000100 	b.eq	401d60 <int_mallinfo+0x58>  // b.none
  401d44:	f2400c5f 	tst	x2, #0xf
  401d48:	54fffee0 	b.eq	401d24 <int_mallinfo+0x1c>  // b.none
  401d4c:	a9bf7bfd 	stp	x29, x30, [sp, #-16]!
  401d50:	b0000280 	adrp	x0, 452000 <__pthread_mutex_cond_lock_full+0x680>
  401d54:	912bc000 	add	x0, x0, #0xaf0
  401d58:	910003fd 	mov	x29, sp
  401d5c:	97ffffe5 	bl	401cf0 <malloc_printerr>
  401d60:	910020a5 	add	x5, x5, #0x8
  401d64:	eb0500df 	cmp	x6, x5
  401d68:	54fffd81 	b.ne	401d18 <int_mallinfo+0x10>  // b.any
  401d6c:	f9403002 	ldr	x2, [x0, #96]
  401d70:	91214009 	add	x9, x0, #0x850
  401d74:	52800024 	mov	w4, #0x1                   	// #1
  401d78:	f940044a 	ldr	x10, [x2, #8]
  401d7c:	927df14a 	and	x10, x10, #0xfffffffffffffff8
  401d80:	8b080145 	add	x5, x10, x8
  401d84:	f9400cc2 	ldr	x2, [x6, #24]
  401d88:	eb0200df 	cmp	x6, x2
  401d8c:	54000100 	b.eq	401dac <int_mallinfo+0xa4>  // b.none
  401d90:	f9400443 	ldr	x3, [x2, #8]
  401d94:	11000484 	add	w4, w4, #0x1
  401d98:	f9400c42 	ldr	x2, [x2, #24]
  401d9c:	927df063 	and	x3, x3, #0xfffffffffffffff8
  401da0:	8b0300a5 	add	x5, x5, x3
  401da4:	eb0200df 	cmp	x6, x2
  401da8:	54ffff41 	b.ne	401d90 <int_mallinfo+0x88>  // b.any
  401dac:	910040c6 	add	x6, x6, #0x10
  401db0:	eb06013f 	cmp	x9, x6
  401db4:	54fffe81 	b.ne	401d84 <int_mallinfo+0x7c>  // b.any
  401db8:	f9400822 	ldr	x2, [x1, #16]
  401dbc:	f0000463 	adrp	x3, 490000 <.got.plt+0x18>
  401dc0:	a940182b 	ldp	x11, x6, [x1]
  401dc4:	9103c063 	add	x3, x3, #0xf0
  401dc8:	8b27c047 	add	x7, x2, w7, sxtw
  401dcc:	a9430829 	ldp	x9, x2, [x1, #48]
  401dd0:	f944440c 	ldr	x12, [x0, #2184]
  401dd4:	8b24c0c4 	add	x4, x6, w4, sxtw
  401dd8:	f9402026 	ldr	x6, [x1, #64]
  401ddc:	8b0c016b 	add	x11, x11, x12
  401de0:	8b020182 	add	x2, x12, x2
  401de4:	8b080128 	add	x8, x9, x8
  401de8:	cb050042 	sub	x2, x2, x5
  401dec:	a900102b 	stp	x11, x4, [x1]
  401df0:	8b0500c4 	add	x4, x6, x5
  401df4:	f9000827 	str	x7, [x1, #16]
  401df8:	a9030828 	stp	x8, x2, [x1, #48]
  401dfc:	f9002024 	str	x4, [x1, #64]
  401e00:	eb03001f 	cmp	x0, x3
  401e04:	54000040 	b.eq	401e0c <int_mallinfo+0x104>  // b.none
  401e08:	d65f03c0 	ret
  401e0c:	f0000460 	adrp	x0, 490000 <.got.plt+0x18>
  401e10:	91014000 	add	x0, x0, #0x50
  401e14:	f9402802 	ldr	x2, [x0, #80]
  401e18:	f900242a 	str	x10, [x1, #72]
  401e1c:	b9803c00 	ldrsw	x0, [x0, #60]
  401e20:	a9018820 	stp	x0, x2, [x1, #24]
  401e24:	f900143f 	str	xzr, [x1, #40]
  401e28:	d65f03c0 	ret

0000000000401e2c <alloc_perturb>:
  401e2c:	b00004a2 	adrp	x2, 496000 <__pthread_keys+0x39d0>
  401e30:	b9463043 	ldr	w3, [x2, #1584]
  401e34:	35000043 	cbnz	w3, 401e3c <alloc_perturb+0x10>
  401e38:	d65f03c0 	ret
  401e3c:	aa0103e2 	mov	x2, x1
  401e40:	52001c61 	eor	w1, w3, #0xff
  401e44:	17fff917 	b	4002a0 <.plt+0x30>

0000000000401e48 <munmap_chunk>:
  401e48:	a9bd7bfd 	stp	x29, x30, [sp, #-48]!
  401e4c:	910003fd 	mov	x29, sp
  401e50:	d0000461 	adrp	x1, 48f000 <_IO_file_jumps+0xf8>
  401e54:	f947d421 	ldr	x1, [x1, #4008]
  401e58:	a90153f3 	stp	x19, x20, [sp, #16]
  401e5c:	f9400402 	ldr	x2, [x0, #8]
  401e60:	f9400021 	ldr	x1, [x1]
  401e64:	f90013f5 	str	x21, [sp, #32]
  401e68:	360803e2 	tbz	w2, #1, 401ee4 <munmap_chunk+0x9c>
  401e6c:	f9400014 	ldr	x20, [x0]
  401e70:	927df043 	and	x3, x2, #0xfffffffffffffff8
  401e74:	d1000421 	sub	x1, x1, #0x1
  401e78:	91004002 	add	x2, x0, #0x10
  401e7c:	8a010042 	and	x2, x2, x1
  401e80:	cb140013 	sub	x19, x0, x20
  401e84:	8b030294 	add	x20, x20, x3
  401e88:	d1000443 	sub	x3, x2, #0x1
  401e8c:	aa140260 	orr	x0, x19, x20
  401e90:	8a020062 	and	x2, x3, x2
  401e94:	8a010000 	and	x0, x0, x1
  401e98:	aa020000 	orr	x0, x0, x2
  401e9c:	b50001e0 	cbnz	x0, 401ed8 <munmap_chunk+0x90>
  401ea0:	f0000475 	adrp	x21, 490000 <.got.plt+0x18>
  401ea4:	910142b5 	add	x21, x21, #0x50
  401ea8:	9100f2a1 	add	x1, x21, #0x3c
  401eac:	12800000 	mov	w0, #0xffffffff            	// #-1
  401eb0:	94011fe8 	bl	449e50 <__aarch64_ldadd4_relax>
  401eb4:	910142a1 	add	x1, x21, #0x50
  401eb8:	cb1403e0 	neg	x0, x20
  401ebc:	94011ffd 	bl	449eb0 <__aarch64_ldadd8_relax>
  401ec0:	f94013f5 	ldr	x21, [sp, #32]
  401ec4:	aa1403e1 	mov	x1, x20
  401ec8:	aa1303e0 	mov	x0, x19
  401ecc:	a94153f3 	ldp	x19, x20, [sp, #16]
  401ed0:	a8c37bfd 	ldp	x29, x30, [sp], #48
  401ed4:	1400221b 	b	40a740 <__munmap>
  401ed8:	b0000280 	adrp	x0, 452000 <__pthread_mutex_cond_lock_full+0x680>
  401edc:	912d4000 	add	x0, x0, #0xb50
  401ee0:	97ffff84 	bl	401cf0 <malloc_printerr>
  401ee4:	d0000283 	adrp	x3, 453000 <__PRETTY_FUNCTION__.1+0x578>
  401ee8:	b0000281 	adrp	x1, 452000 <__pthread_mutex_cond_lock_full+0x680>
  401eec:	b0000280 	adrp	x0, 452000 <__pthread_mutex_cond_lock_full+0x680>
  401ef0:	91396063 	add	x3, x3, #0xe58
  401ef4:	912ca021 	add	x1, x1, #0xb28
  401ef8:	912ce000 	add	x0, x0, #0xb38
  401efc:	52817a82 	mov	w2, #0xbd4                 	// #3028
  401f00:	94002c58 	bl	40d060 <__libc_assert_fail>

0000000000401f04 <detach_arena.part.0>:
  401f04:	a9bf7bfd 	stp	x29, x30, [sp, #-16]!
  401f08:	d0000283 	adrp	x3, 453000 <__PRETTY_FUNCTION__.1+0x578>
  401f0c:	b0000281 	adrp	x1, 452000 <__pthread_mutex_cond_lock_full+0x680>
  401f10:	910003fd 	mov	x29, sp
  401f14:	b0000280 	adrp	x0, 452000 <__pthread_mutex_cond_lock_full+0x680>
  401f18:	913b8063 	add	x3, x3, #0xee0
  401f1c:	912dc021 	add	x1, x1, #0xb70
  401f20:	912de000 	add	x0, x0, #0xb78
  401f24:	52804da2 	mov	w2, #0x26d                 	// #621
  401f28:	94002c4e 	bl	40d060 <__libc_assert_fail>

0000000000401f2c <_dl_tunable_set_hugetlb>:
  401f2c:	f9400000 	ldr	x0, [x0]
  401f30:	f100041f 	cmp	x0, #0x1
  401f34:	54000140 	b.eq	401f5c <_dl_tunable_set_hugetlb+0x30>  // b.none
  401f38:	54000109 	b.ls	401f58 <_dl_tunable_set_hugetlb+0x2c>  // b.plast
  401f3c:	f100081f 	cmp	x0, #0x2
  401f40:	f0000461 	adrp	x1, 490000 <.got.plt+0x18>
  401f44:	91014021 	add	x1, x1, #0x50
  401f48:	9a9f1000 	csel	x0, x0, xzr, ne	// ne = any
  401f4c:	9100e022 	add	x2, x1, #0x38
  401f50:	9100c021 	add	x1, x1, #0x30
  401f54:	14002303 	b	40ab60 <__malloc_hugepage_config>
  401f58:	d65f03c0 	ret
  401f5c:	a9bf7bfd 	stp	x29, x30, [sp, #-16]!
  401f60:	910003fd 	mov	x29, sp
  401f64:	940022c8 	bl	40aa84 <__malloc_thp_mode>
  401f68:	7100041f 	cmp	w0, #0x1
  401f6c:	54000060 	b.eq	401f78 <_dl_tunable_set_hugetlb+0x4c>  // b.none
  401f70:	a8c17bfd 	ldp	x29, x30, [sp], #16
  401f74:	d65f03c0 	ret
  401f78:	9400229a 	bl	40a9e0 <__malloc_default_thp_pagesize>
  401f7c:	f0000461 	adrp	x1, 490000 <.got.plt+0x18>
  401f80:	f9003c20 	str	x0, [x1, #120]
  401f84:	17fffffb 	b	401f70 <_dl_tunable_set_hugetlb+0x44>

0000000000401f88 <__malloc_info.part.0>:
  401f88:	d282420c 	mov	x12, #0x1210                	// #4624
  401f8c:	cb2c63ff 	sub	sp, sp, x12
  401f90:	d280000b 	mov	x11, #0x0                   	// #0
  401f94:	d2800009 	mov	x9, #0x0                   	// #0
  401f98:	d280000f 	mov	x15, #0x0                   	// #0
  401f9c:	d280000c 	mov	x12, #0x0                   	// #0
  401fa0:	a9027bfd 	stp	x29, x30, [sp, #32]
  401fa4:	910083fd 	add	x29, sp, #0x20
  401fa8:	d2800003 	mov	x3, #0x0                   	// #0
  401fac:	52800002 	mov	w2, #0x0                   	// #0
  401fb0:	a90353f3 	stp	x19, x20, [sp, #48]
  401fb4:	b0000294 	adrp	x20, 452000 <__pthread_mutex_cond_lock_full+0x680>
  401fb8:	aa0003f3 	mov	x19, x0
  401fbc:	a9045bf5 	stp	x21, x22, [sp, #64]
  401fc0:	f0000476 	adrp	x22, 490000 <.got.plt+0x18>
  401fc4:	912e8280 	add	x0, x20, #0xba0
  401fc8:	a90773fb 	stp	x27, x28, [sp, #112]
  401fcc:	9103c2db 	add	x27, x22, #0xf0
  401fd0:	9103c3f5 	add	x21, sp, #0xf0
  401fd4:	aa1b03f4 	mov	x20, x27
  401fd8:	a90563f7 	stp	x23, x24, [sp, #80]
  401fdc:	a9066bf9 	stp	x25, x26, [sp, #96]
  401fe0:	a9087fe0 	stp	x0, xzr, [sp, #128]
  401fe4:	a9097fff 	stp	xzr, xzr, [sp, #144]
  401fe8:	a90a33e3 	stp	x3, x12, [sp, #160]
  401fec:	a90b27ef 	stp	x15, x9, [sp, #176]
  401ff0:	f90063eb 	str	x11, [sp, #192]
  401ff4:	f94043e1 	ldr	x1, [sp, #128]
  401ff8:	11000440 	add	w0, w2, #0x1
  401ffc:	b900cfe0 	str	w0, [sp, #204]
  402000:	aa1303e0 	mov	x0, x19
  402004:	94003097 	bl	40e260 <__fprintf>
  402008:	aa1403e2 	mov	x2, x20
  40200c:	52800021 	mov	w1, #0x1                   	// #1
  402010:	52800000 	mov	w0, #0x0                   	// #0
  402014:	94011f53 	bl	449d60 <__aarch64_cas4_acq>
  402018:	35001940 	cbnz	w0, 402340 <__malloc_info.part.0+0x3b8>
  40201c:	f9403280 	ldr	x0, [x20, #96]
  402020:	9100428c 	add	x12, x20, #0x10
  402024:	aa1503fc 	mov	x28, x21
  402028:	9101828d 	add	x13, x20, #0x60
  40202c:	aa1503e5 	mov	x5, x21
  402030:	d2800009 	mov	x9, #0x0                   	// #0
  402034:	f9400407 	ldr	x7, [x0, #8]
  402038:	d280000a 	mov	x10, #0x0                   	// #0
  40203c:	f9400186 	ldr	x6, [x12]
  402040:	d2800004 	mov	x4, #0x0                   	// #0
  402044:	b5001046 	cbnz	x6, 40224c <__malloc_info.part.0+0x2c4>
  402048:	a9007cbf 	stp	xzr, xzr, [x5]
  40204c:	f9000cbf 	str	xzr, [x5, #24]
  402050:	f94004a1 	ldr	x1, [x5, #8]
  402054:	9100218c 	add	x12, x12, #0x8
  402058:	910080a5 	add	x5, x5, #0x20
  40205c:	9b047c21 	mul	x1, x1, x4
  402060:	f81f00a1 	stur	x1, [x5, #-16]
  402064:	eb0d019f 	cmp	x12, x13
  402068:	54fffea1 	b.ne	40203c <__malloc_info.part.0+0xb4>  // b.any
  40206c:	d00002a1 	adrp	x1, 458000 <__PRETTY_FUNCTION__.0+0x10>
  402070:	927df0e7 	and	x7, x7, #0xfffffffffffffff8
  402074:	4f00041f 	movi	v31.4s, #0x0
  402078:	9108c3ed 	add	x13, sp, #0x230
  40207c:	3dc3fc3e 	ldr	q30, [x1, #4080]
  402080:	d2822401 	mov	x1, #0x1120                	// #4384
  402084:	8b0102af 	add	x15, x21, x1
  402088:	d2800028 	mov	x8, #0x1                   	// #1
  40208c:	f9400982 	ldr	x2, [x12, #16]
  402090:	ad007dbe 	stp	q30, q31, [x13]
  402094:	b5001062 	cbnz	x2, 4022a0 <__malloc_info.part.0+0x318>
  402098:	f90001bf 	str	xzr, [x13]
  40209c:	f94009a1 	ldr	x1, [x13, #16]
  4020a0:	910081ad 	add	x13, x13, #0x20
  4020a4:	9100418c 	add	x12, x12, #0x10
  4020a8:	8b0100e7 	add	x7, x7, x1
  4020ac:	eb0d01ff 	cmp	x15, x13
  4020b0:	54fffee1 	b.ne	40208c <__malloc_info.part.0+0x104>  // b.any
  4020b4:	9103c2c1 	add	x1, x22, #0xf0
  4020b8:	eb01029f 	cmp	x20, x1
  4020bc:	54001201 	b.ne	4022fc <__malloc_info.part.0+0x374>  // b.any
  4020c0:	d2800019 	mov	x25, #0x0                   	// #0
  4020c4:	d2800017 	mov	x23, #0x0                   	// #0
  4020c8:	d2800018 	mov	x24, #0x0                   	// #0
  4020cc:	aa1403e1 	mov	x1, x20
  4020d0:	52800000 	mov	w0, #0x0                   	// #0
  4020d4:	a90d27e7 	stp	x7, x9, [sp, #208]
  4020d8:	a90e23ea 	stp	x10, x8, [sp, #224]
  4020dc:	94011fbd 	bl	449fd0 <__aarch64_swp4_rel>
  4020e0:	7100041f 	cmp	w0, #0x1
  4020e4:	a94d27e7 	ldp	x7, x9, [sp, #208]
  4020e8:	a94e23ea 	ldp	x10, x8, [sp, #224]
  4020ec:	5400164c 	b.gt	4023b4 <__malloc_info.part.0+0x42c>
  4020f0:	f94047e0 	ldr	x0, [sp, #136]
  4020f4:	d280001a 	mov	x26, #0x0                   	// #0
  4020f8:	9000029b 	adrp	x27, 452000 <__pthread_mutex_cond_lock_full+0x680>
  4020fc:	912fc37b 	add	x27, x27, #0xbf0
  402100:	8b090000 	add	x0, x0, x9
  402104:	f90047e0 	str	x0, [sp, #136]
  402108:	f94053e0 	ldr	x0, [sp, #160]
  40210c:	a90d1ff4 	stp	x20, x7, [sp, #208]
  402110:	aa1a03f4 	mov	x20, x26
  402114:	8b0a0000 	add	x0, x0, x10
  402118:	f90053e0 	str	x0, [sp, #160]
  40211c:	f9404be0 	ldr	x0, [sp, #144]
  402120:	aa0a03fa 	mov	x26, x10
  402124:	a90e57e9 	stp	x9, x21, [sp, #224]
  402128:	aa1c03f5 	mov	x21, x28
  40212c:	8b080000 	add	x0, x0, x8
  402130:	f9004be0 	str	x0, [sp, #144]
  402134:	aa0803fc 	mov	x28, x8
  402138:	f9404fe0 	ldr	x0, [sp, #152]
  40213c:	8b070000 	add	x0, x0, x7
  402140:	f9004fe0 	str	x0, [sp, #152]
  402144:	14000005 	b	402158 <__malloc_info.part.0+0x1d0>
  402148:	91000694 	add	x20, x20, #0x1
  40214c:	910082b5 	add	x21, x21, #0x20
  402150:	f102269f 	cmp	x20, #0x89
  402154:	540001c0 	b.eq	40218c <__malloc_info.part.0+0x204>  // b.none
  402158:	f9400ea5 	ldr	x5, [x21, #24]
  40215c:	f10000bf 	cmp	x5, #0x0
  402160:	fa4a1a84 	ccmp	x20, #0xa, #0x4, ne	// ne = any
  402164:	54ffff20 	b.eq	402148 <__malloc_info.part.0+0x1c0>  // b.none
  402168:	a9400ea2 	ldp	x2, x3, [x21]
  40216c:	aa1b03e1 	mov	x1, x27
  402170:	f9400aa4 	ldr	x4, [x21, #16]
  402174:	aa1303e0 	mov	x0, x19
  402178:	91000694 	add	x20, x20, #0x1
  40217c:	910082b5 	add	x21, x21, #0x20
  402180:	94003038 	bl	40e260 <__fprintf>
  402184:	f102269f 	cmp	x20, #0x89
  402188:	54fffe81 	b.ne	402158 <__malloc_info.part.0+0x1d0>  // b.any
  40218c:	f94127e5 	ldr	x5, [sp, #584]
  402190:	aa1a03ea 	mov	x10, x26
  402194:	a94d1ff4 	ldp	x20, x7, [sp, #208]
  402198:	aa1c03e8 	mov	x8, x28
  40219c:	a94e57e9 	ldp	x9, x21, [sp, #224]
  4021a0:	b5000d65 	cbnz	x5, 40234c <__malloc_info.part.0+0x3c4>
  4021a4:	f94057e0 	ldr	x0, [sp, #168]
  4021a8:	aa0703e5 	mov	x5, x7
  4021ac:	f9444686 	ldr	x6, [x20, #2184]
  4021b0:	aa0803e4 	mov	x4, x8
  4021b4:	f9444a87 	ldr	x7, [x20, #2192]
  4021b8:	8b060000 	add	x0, x0, x6
  4021bc:	f90057e0 	str	x0, [sp, #168]
  4021c0:	aa0a03e3 	mov	x3, x10
  4021c4:	f9405be0 	ldr	x0, [sp, #176]
  4021c8:	aa0903e2 	mov	x2, x9
  4021cc:	90000281 	adrp	x1, 452000 <__pthread_mutex_cond_lock_full+0x680>
  4021d0:	9131a021 	add	x1, x1, #0xc68
  4021d4:	8b070000 	add	x0, x0, x7
  4021d8:	f9005be0 	str	x0, [sp, #176]
  4021dc:	aa1303e0 	mov	x0, x19
  4021e0:	94003020 	bl	40e260 <__fprintf>
  4021e4:	9103c2c0 	add	x0, x22, #0xf0
  4021e8:	eb00029f 	cmp	x20, x0
  4021ec:	54000c80 	b.eq	40237c <__malloc_info.part.0+0x3f4>  // b.none
  4021f0:	aa1903e4 	mov	x4, x25
  4021f4:	aa1703e3 	mov	x3, x23
  4021f8:	aa1803e2 	mov	x2, x24
  4021fc:	aa1303e0 	mov	x0, x19
  402200:	90000281 	adrp	x1, 452000 <__pthread_mutex_cond_lock_full+0x680>
  402204:	91344021 	add	x1, x1, #0xd10
  402208:	94003016 	bl	40e260 <__fprintf>
  40220c:	f9405fe0 	ldr	x0, [sp, #184]
  402210:	8b180000 	add	x0, x0, x24
  402214:	f9005fe0 	str	x0, [sp, #184]
  402218:	f94063e0 	ldr	x0, [sp, #192]
  40221c:	8b170000 	add	x0, x0, x23
  402220:	f90063e0 	str	x0, [sp, #192]
  402224:	aa1303e1 	mov	x1, x19
  402228:	90000280 	adrp	x0, 452000 <__pthread_mutex_cond_lock_full+0x680>
  40222c:	91372000 	add	x0, x0, #0xdc8
  402230:	9400441c 	bl	4132a0 <_IO_fputs>
  402234:	f9443a94 	ldr	x20, [x20, #2160]
  402238:	9103c2c0 	add	x0, x22, #0xf0
  40223c:	eb00029f 	cmp	x20, x0
  402240:	54000c40 	b.eq	4023c8 <__malloc_info.part.0+0x440>  // b.none
  402244:	b940cfe2 	ldr	w2, [sp, #204]
  402248:	17ffff6b 	b	401ff4 <__malloc_info.part.0+0x6c>
  40224c:	aa0603e1 	mov	x1, x6
  402250:	14000007 	b	40226c <__malloc_info.part.0+0x2e4>
  402254:	f9400822 	ldr	x2, [x1, #16]
  402258:	91004023 	add	x3, x1, #0x10
  40225c:	91000484 	add	x4, x4, #0x1
  402260:	ca433041 	eor	x1, x2, x3, lsr #12
  402264:	eb43305f 	cmp	x2, x3, lsr #12
  402268:	540000c0 	b.eq	402280 <__malloc_info.part.0+0x2f8>  // b.none
  40226c:	f2400c3f 	tst	x1, #0xf
  402270:	54ffff20 	b.eq	402254 <__malloc_info.part.0+0x2cc>  // b.none
  402274:	90000280 	adrp	x0, 452000 <__pthread_mutex_cond_lock_full+0x680>
  402278:	912ee000 	add	x0, x0, #0xbb8
  40227c:	97fffe9d 	bl	401cf0 <malloc_printerr>
  402280:	f94004c1 	ldr	x1, [x6, #8]
  402284:	8b040129 	add	x9, x9, x4
  402288:	f9000ca4 	str	x4, [x5, #24]
  40228c:	927df021 	and	x1, x1, #0xfffffffffffffff8
  402290:	d1003c22 	sub	x2, x1, #0xf
  402294:	a90004a2 	stp	x2, x1, [x5]
  402298:	9b04282a 	madd	x10, x1, x4, x10
  40229c:	17ffff6d 	b	402050 <__malloc_info.part.0+0xc8>
  4022a0:	eb0c005f 	cmp	x2, x12
  4022a4:	54ffefa0 	b.eq	402098 <__malloc_info.part.0+0x110>  // b.none
  4022a8:	d2800004 	mov	x4, #0x0                   	// #0
  4022ac:	d2800006 	mov	x6, #0x0                   	// #0
  4022b0:	d2800025 	mov	x5, #0x1                   	// #1
  4022b4:	92800003 	mov	x3, #0xffffffffffffffff    	// #-1
  4022b8:	d503201f 	nop
  4022bc:	d503201f 	nop
  4022c0:	a9408841 	ldp	x1, x2, [x2, #8]
  4022c4:	aa0503eb 	mov	x11, x5
  4022c8:	910004a5 	add	x5, x5, #0x1
  4022cc:	eb01007f 	cmp	x3, x1
  4022d0:	8b0100c6 	add	x6, x6, x1
  4022d4:	9a819063 	csel	x3, x3, x1, ls	// ls = plast
  4022d8:	eb01009f 	cmp	x4, x1
  4022dc:	9a812084 	csel	x4, x4, x1, cs	// cs = hs, nlast
  4022e0:	eb0c005f 	cmp	x2, x12
  4022e4:	54fffee1 	b.ne	4022c0 <__malloc_info.part.0+0x338>  // b.any
  4022e8:	a90011a3 	stp	x3, x4, [x13]
  4022ec:	a9012da6 	stp	x6, x11, [x13, #16]
  4022f0:	b4ffed4b 	cbz	x11, 402098 <__malloc_info.part.0+0x110>
  4022f4:	8b0b0108 	add	x8, x8, x11
  4022f8:	17ffff69 	b	40209c <__malloc_info.part.0+0x114>
  4022fc:	d0000461 	adrp	x1, 490000 <.got.plt+0x18>
  402300:	b26697e2 	mov	x2, #0xfffffffffc000000    	// #-67108864
  402304:	d2800019 	mov	x25, #0x0                   	// #0
  402308:	d2800017 	mov	x23, #0x0                   	// #0
  40230c:	f9404021 	ldr	x1, [x1, #128]
  402310:	d2800018 	mov	x24, #0x0                   	// #0
  402314:	f100003f 	cmp	x1, #0x0
  402318:	cb010be1 	neg	x1, x1, lsl #2
  40231c:	9a821021 	csel	x1, x1, x2, ne	// ne = any
  402320:	8a010000 	and	x0, x0, x1
  402324:	f9400c01 	ldr	x1, [x0, #24]
  402328:	91000739 	add	x25, x25, #0x1
  40232c:	a9408800 	ldp	x0, x2, [x0, #8]
  402330:	8b0102f7 	add	x23, x23, x1
  402334:	8b020318 	add	x24, x24, x2
  402338:	b5ffff60 	cbnz	x0, 402324 <__malloc_info.part.0+0x39c>
  40233c:	17ffff64 	b	4020cc <__malloc_info.part.0+0x144>
  402340:	aa1403e0 	mov	x0, x20
  402344:	97fffd4f 	bl	401880 <__lll_lock_wait_private>
  402348:	17ffff35 	b	40201c <__malloc_info.part.0+0x94>
  40234c:	f9411be2 	ldr	x2, [sp, #560]
  402350:	aa1303e0 	mov	x0, x19
  402354:	f9411fe3 	ldr	x3, [sp, #568]
  402358:	90000281 	adrp	x1, 452000 <__pthread_mutex_cond_lock_full+0x680>
  40235c:	f94123e4 	ldr	x4, [sp, #576]
  402360:	9130a021 	add	x1, x1, #0xc28
  402364:	a90d27e7 	stp	x7, x9, [sp, #208]
  402368:	a90e73fa 	stp	x26, x28, [sp, #224]
  40236c:	94002fbd 	bl	40e260 <__fprintf>
  402370:	a94d27e7 	ldp	x7, x9, [sp, #208]
  402374:	a94e23ea 	ldp	x10, x8, [sp, #224]
  402378:	17ffff8b 	b	4021a4 <__malloc_info.part.0+0x21c>
  40237c:	f9444683 	ldr	x3, [x20, #2184]
  402380:	aa1303e0 	mov	x0, x19
  402384:	90000281 	adrp	x1, 452000 <__pthread_mutex_cond_lock_full+0x680>
  402388:	91360021 	add	x1, x1, #0xd80
  40238c:	aa0303e2 	mov	x2, x3
  402390:	94002fb4 	bl	40e260 <__fprintf>
  402394:	f9405fe1 	ldr	x1, [sp, #184]
  402398:	f9444680 	ldr	x0, [x20, #2184]
  40239c:	8b000021 	add	x1, x1, x0
  4023a0:	f9005fe1 	str	x1, [sp, #184]
  4023a4:	f94063e1 	ldr	x1, [sp, #192]
  4023a8:	8b000020 	add	x0, x1, x0
  4023ac:	f90063e0 	str	x0, [sp, #192]
  4023b0:	17ffff9d 	b	402224 <__malloc_info.part.0+0x29c>
  4023b4:	aa1403e0 	mov	x0, x20
  4023b8:	97fffd72 	bl	401980 <__lll_lock_wake_private>
  4023bc:	a94d27e7 	ldp	x7, x9, [sp, #208]
  4023c0:	a94e23ea 	ldp	x10, x8, [sp, #224]
  4023c4:	17ffff4b 	b	4020f0 <__malloc_info.part.0+0x168>
  4023c8:	a94abfec 	ldp	x12, x15, [sp, #168]
  4023cc:	d0000460 	adrp	x0, 490000 <.got.plt+0x18>
  4023d0:	91014000 	add	x0, x0, #0x50
  4023d4:	a9003fec 	stp	x12, x15, [sp]
  4023d8:	90000281 	adrp	x1, 452000 <__pthread_mutex_cond_lock_full+0x680>
  4023dc:	a94bafe9 	ldp	x9, x11, [sp, #184]
  4023e0:	91376021 	add	x1, x1, #0xdd8
  4023e4:	a94893e2 	ldp	x2, x4, [sp, #136]
  4023e8:	a9498fe5 	ldp	x5, x3, [sp, #152]
  4023ec:	f9402807 	ldr	x7, [x0, #80]
  4023f0:	b9403c06 	ldr	w6, [x0, #60]
  4023f4:	aa1303e0 	mov	x0, x19
  4023f8:	a9012fe9 	stp	x9, x11, [sp, #16]
  4023fc:	94002f99 	bl	40e260 <__fprintf>
  402400:	a9427bfd 	ldp	x29, x30, [sp, #32]
  402404:	52800000 	mov	w0, #0x0                   	// #0
  402408:	a94353f3 	ldp	x19, x20, [sp, #48]
  40240c:	d282420c 	mov	x12, #0x1210                	// #4624
  402410:	a9445bf5 	ldp	x21, x22, [sp, #64]
  402414:	a94563f7 	ldp	x23, x24, [sp, #80]
  402418:	a9466bf9 	ldp	x25, x26, [sp, #96]
  40241c:	a94773fb 	ldp	x27, x28, [sp, #112]
  402420:	8b2c63ff 	add	sp, sp, x12
  402424:	d65f03c0 	ret

0000000000402428 <unlink_chunk.isra.0>:
  402428:	a9bf7bfd 	stp	x29, x30, [sp, #-16]!
  40242c:	910003fd 	mov	x29, sp
  402430:	f9400403 	ldr	x3, [x0, #8]
  402434:	927df061 	and	x1, x3, #0xfffffffffffffff8
  402438:	f8616802 	ldr	x2, [x0, x1]
  40243c:	eb02003f 	cmp	x1, x2
  402440:	540004e1 	b.ne	4024dc <unlink_chunk.isra.0+0xb4>  // b.any
  402444:	a9410801 	ldp	x1, x2, [x0, #16]
  402448:	f9400c24 	ldr	x4, [x1, #24]
  40244c:	eb04001f 	cmp	x0, x4
  402450:	540003c1 	b.ne	4024c8 <unlink_chunk.isra.0+0xa0>  // b.any
  402454:	f9400844 	ldr	x4, [x2, #16]
  402458:	eb04001f 	cmp	x0, x4
  40245c:	54000361 	b.ne	4024c8 <unlink_chunk.isra.0+0xa0>  // b.any
  402460:	f9000c22 	str	x2, [x1, #24]
  402464:	f9000841 	str	x1, [x2, #16]
  402468:	f10ffc7f 	cmp	x3, #0x3ff
  40246c:	540001c9 	b.ls	4024a4 <unlink_chunk.isra.0+0x7c>  // b.plast
  402470:	f9401002 	ldr	x2, [x0, #32]
  402474:	b4000182 	cbz	x2, 4024a4 <unlink_chunk.isra.0+0x7c>
  402478:	f9401443 	ldr	x3, [x2, #40]
  40247c:	eb03001f 	cmp	x0, x3
  402480:	54000341 	b.ne	4024e8 <unlink_chunk.isra.0+0xc0>  // b.any
  402484:	f9401403 	ldr	x3, [x0, #40]
  402488:	f9401064 	ldr	x4, [x3, #32]
  40248c:	eb04001f 	cmp	x0, x4
  402490:	540002c1 	b.ne	4024e8 <unlink_chunk.isra.0+0xc0>  // b.any
  402494:	f9401024 	ldr	x4, [x1, #32]
  402498:	b40000a4 	cbz	x4, 4024ac <unlink_chunk.isra.0+0x84>
  40249c:	f9001443 	str	x3, [x2, #40]
  4024a0:	f9001062 	str	x2, [x3, #32]
  4024a4:	a8c17bfd 	ldp	x29, x30, [sp], #16
  4024a8:	d65f03c0 	ret
  4024ac:	eb02001f 	cmp	x0, x2
  4024b0:	54000120 	b.eq	4024d4 <unlink_chunk.isra.0+0xac>  // b.none
  4024b4:	a9020c22 	stp	x2, x3, [x1, #32]
  4024b8:	f9001441 	str	x1, [x2, #40]
  4024bc:	f9401400 	ldr	x0, [x0, #40]
  4024c0:	f9001001 	str	x1, [x0, #32]
  4024c4:	17fffff8 	b	4024a4 <unlink_chunk.isra.0+0x7c>
  4024c8:	90000280 	adrp	x0, 452000 <__pthread_mutex_cond_lock_full+0x680>
  4024cc:	913c6000 	add	x0, x0, #0xf18
  4024d0:	97fffe08 	bl	401cf0 <malloc_printerr>
  4024d4:	a9020421 	stp	x1, x1, [x1, #32]
  4024d8:	17fffff3 	b	4024a4 <unlink_chunk.isra.0+0x7c>
  4024dc:	90000280 	adrp	x0, 452000 <__pthread_mutex_cond_lock_full+0x680>
  4024e0:	913be000 	add	x0, x0, #0xef8
  4024e4:	97fffe03 	bl	401cf0 <malloc_printerr>
  4024e8:	90000280 	adrp	x0, 452000 <__pthread_mutex_cond_lock_full+0x680>
  4024ec:	913ce000 	add	x0, x0, #0xf38
  4024f0:	97fffe00 	bl	401cf0 <malloc_printerr>
  4024f4:	d503201f 	nop
  4024f8:	d503201f 	nop
  4024fc:	d503201f 	nop

0000000000402500 <malloc_consolidate>:
  402500:	a9b97bfd 	stp	x29, x30, [sp, #-112]!
  402504:	910003fd 	mov	x29, sp
  402508:	a90363f7 	stp	x23, x24, [sp, #48]
  40250c:	aa0003f8 	mov	x24, x0
  402510:	91002000 	add	x0, x0, #0x8
  402514:	a9046bf9 	stp	x25, x26, [sp, #64]
  402518:	a90573fb 	stp	x27, x28, [sp, #80]
  40251c:	b900001f 	str	wzr, [x0]
  402520:	9101831b 	add	x27, x24, #0x60
  402524:	91004319 	add	x25, x24, #0x10
  402528:	aa1903e1 	mov	x1, x25
  40252c:	d2800000 	mov	x0, #0x0                   	// #0
  402530:	94011e9c 	bl	449fa0 <__aarch64_swp8_acq>
  402534:	b5000120 	cbnz	x0, 402558 <malloc_consolidate+0x58>
  402538:	91002339 	add	x25, x25, #0x8
  40253c:	eb19037f 	cmp	x27, x25
  402540:	54ffff41 	b.ne	402528 <malloc_consolidate+0x28>  // b.any
  402544:	a94363f7 	ldp	x23, x24, [sp, #48]
  402548:	a9446bf9 	ldp	x25, x26, [sp, #64]
  40254c:	a94573fb 	ldp	x27, x28, [sp, #80]
  402550:	a8c77bfd 	ldp	x29, x30, [sp], #112
  402554:	d65f03c0 	ret
  402558:	a90153f3 	stp	x19, x20, [sp, #16]
  40255c:	aa0003f3 	mov	x19, x0
  402560:	a9025bf5 	stp	x21, x22, [sp, #32]
  402564:	14000013 	b	4025b0 <malloc_consolidate+0xb0>
  402568:	8b1c02c0 	add	x0, x22, x28
  40256c:	f9400400 	ldr	x0, [x0, #8]
  402570:	36000720 	tbz	w0, #0, 402654 <malloc_consolidate+0x154>
  402574:	927ffaf7 	and	x23, x23, #0xfffffffffffffffe
  402578:	f90006d7 	str	x23, [x22, #8]
  40257c:	f9400b60 	ldr	x0, [x27, #16]
  402580:	f9000b73 	str	x19, [x27, #16]
  402584:	f9000c13 	str	x19, [x0, #24]
  402588:	f10ffe9f 	cmp	x20, #0x3ff
  40258c:	54000049 	b.ls	402594 <malloc_consolidate+0x94>  // b.plast
  402590:	a9027e7f 	stp	xzr, xzr, [x19, #32]
  402594:	b2400281 	orr	x1, x20, #0x1
  402598:	a9008261 	stp	x1, x0, [x19, #8]
  40259c:	f9000e7b 	str	x27, [x19, #24]
  4025a0:	f8346a74 	str	x20, [x19, x20]
  4025a4:	eb1a009f 	cmp	x4, x26
  4025a8:	54000500 	b.eq	402648 <malloc_consolidate+0x148>  // b.none
  4025ac:	aa1503f3 	mov	x19, x21
  4025b0:	f2400e7f 	tst	x19, #0xf
  4025b4:	540005c1 	b.ne	40266c <malloc_consolidate+0x16c>  // b.any
  4025b8:	f9400663 	ldr	x3, [x19, #8]
  4025bc:	53047c62 	lsr	w2, w3, #4
  4025c0:	51000842 	sub	w2, w2, #0x2
  4025c4:	91000842 	add	x2, x2, #0x2
  4025c8:	8b020f02 	add	x2, x24, x2, lsl #3
  4025cc:	eb02033f 	cmp	x25, x2
  4025d0:	540005a1 	b.ne	402684 <malloc_consolidate+0x184>  // b.any
  4025d4:	927df074 	and	x20, x3, #0xfffffffffffffff8
  4025d8:	91004262 	add	x2, x19, #0x10
  4025dc:	8b140276 	add	x22, x19, x20
  4025e0:	f9400a7a 	ldr	x26, [x19, #16]
  4025e4:	d34cfc44 	lsr	x4, x2, #12
  4025e8:	f94006d7 	ldr	x23, [x22, #8]
  4025ec:	ca423355 	eor	x21, x26, x2, lsr #12
  4025f0:	927df2fc 	and	x28, x23, #0xfffffffffffffff8
  4025f4:	37000183 	tbnz	w3, #0, 402624 <malloc_consolidate+0x124>
  4025f8:	f9400260 	ldr	x0, [x19]
  4025fc:	cb000273 	sub	x19, x19, x0
  402600:	8b000294 	add	x20, x20, x0
  402604:	f9400661 	ldr	x1, [x19, #8]
  402608:	927df021 	and	x1, x1, #0xfffffffffffffff8
  40260c:	eb00003f 	cmp	x1, x0
  402610:	54000341 	b.ne	402678 <malloc_consolidate+0x178>  // b.any
  402614:	aa1303e0 	mov	x0, x19
  402618:	f90037e4 	str	x4, [sp, #104]
  40261c:	97ffff83 	bl	402428 <unlink_chunk.isra.0>
  402620:	f94037e4 	ldr	x4, [sp, #104]
  402624:	f9403300 	ldr	x0, [x24, #96]
  402628:	eb16001f 	cmp	x0, x22
  40262c:	54fff9e1 	b.ne	402568 <malloc_consolidate+0x68>  // b.any
  402630:	8b1c0294 	add	x20, x20, x28
  402634:	b2400294 	orr	x20, x20, #0x1
  402638:	f9000674 	str	x20, [x19, #8]
  40263c:	f9003313 	str	x19, [x24, #96]
  402640:	eb1a009f 	cmp	x4, x26
  402644:	54fffb41 	b.ne	4025ac <malloc_consolidate+0xac>  // b.any
  402648:	a94153f3 	ldp	x19, x20, [sp, #16]
  40264c:	a9425bf5 	ldp	x21, x22, [sp, #32]
  402650:	17ffffba 	b	402538 <malloc_consolidate+0x38>
  402654:	aa1603e0 	mov	x0, x22
  402658:	f90037e4 	str	x4, [sp, #104]
  40265c:	97ffff73 	bl	402428 <unlink_chunk.isra.0>
  402660:	8b1c0294 	add	x20, x20, x28
  402664:	f94037e4 	ldr	x4, [sp, #104]
  402668:	17ffffc5 	b	40257c <malloc_consolidate+0x7c>
  40266c:	90000280 	adrp	x0, 452000 <__pthread_mutex_cond_lock_full+0x680>
  402670:	913da000 	add	x0, x0, #0xf68
  402674:	97fffd9f 	bl	401cf0 <malloc_printerr>
  402678:	90000280 	adrp	x0, 452000 <__pthread_mutex_cond_lock_full+0x680>
  40267c:	913f4000 	add	x0, x0, #0xfd0
  402680:	97fffd9c 	bl	401cf0 <malloc_printerr>
  402684:	90000280 	adrp	x0, 452000 <__pthread_mutex_cond_lock_full+0x680>
  402688:	913e8000 	add	x0, x0, #0xfa0
  40268c:	97fffd99 	bl	401cf0 <malloc_printerr>

0000000000402690 <_int_free_create_chunk>:
  402690:	a9bd7bfd 	stp	x29, x30, [sp, #-48]!
  402694:	910003fd 	mov	x29, sp
  402698:	a90153f3 	stp	x19, x20, [sp, #16]
  40269c:	aa0003f4 	mov	x20, x0
  4026a0:	aa0203f3 	mov	x19, x2
  4026a4:	a9025bf5 	stp	x21, x22, [sp, #32]
  4026a8:	aa0103f5 	mov	x21, x1
  4026ac:	aa0403f6 	mov	x22, x4
  4026b0:	f9403000 	ldr	x0, [x0, #96]
  4026b4:	eb03001f 	cmp	x0, x3
  4026b8:	540003c0 	b.eq	402730 <_int_free_create_chunk+0xa0>  // b.none
  4026bc:	8b040060 	add	x0, x3, x4
  4026c0:	f9400400 	ldr	x0, [x0, #8]
  4026c4:	360002e0 	tbz	w0, #0, 402720 <_int_free_create_chunk+0x90>
  4026c8:	f9400461 	ldr	x1, [x3, #8]
  4026cc:	aa0203e0 	mov	x0, x2
  4026d0:	927ff821 	and	x1, x1, #0xfffffffffffffffe
  4026d4:	f9000461 	str	x1, [x3, #8]
  4026d8:	f9403a81 	ldr	x1, [x20, #112]
  4026dc:	91018282 	add	x2, x20, #0x60
  4026e0:	f9400c23 	ldr	x3, [x1, #24]
  4026e4:	eb02007f 	cmp	x3, x2
  4026e8:	54000341 	b.ne	402750 <_int_free_create_chunk+0xc0>  // b.any
  4026ec:	a9010aa1 	stp	x1, x2, [x21, #16]
  4026f0:	f10ffc1f 	cmp	x0, #0x3ff
  4026f4:	54000049 	b.ls	4026fc <_int_free_create_chunk+0x6c>  // b.plast
  4026f8:	a9027ebf 	stp	xzr, xzr, [x21, #32]
  4026fc:	f9000855 	str	x21, [x2, #16]
  402700:	f9000c35 	str	x21, [x1, #24]
  402704:	b2400001 	orr	x1, x0, #0x1
  402708:	f90006a1 	str	x1, [x21, #8]
  40270c:	f8206aa0 	str	x0, [x21, x0]
  402710:	a94153f3 	ldp	x19, x20, [sp, #16]
  402714:	a9425bf5 	ldp	x21, x22, [sp, #32]
  402718:	a8c37bfd 	ldp	x29, x30, [sp], #48
  40271c:	d65f03c0 	ret
  402720:	aa0303e0 	mov	x0, x3
  402724:	97ffff41 	bl	402428 <unlink_chunk.isra.0>
  402728:	8b160260 	add	x0, x19, x22
  40272c:	17ffffeb 	b	4026d8 <_int_free_create_chunk+0x48>
  402730:	8b040040 	add	x0, x2, x4
  402734:	b2400001 	orr	x1, x0, #0x1
  402738:	f90006a1 	str	x1, [x21, #8]
  40273c:	f9003295 	str	x21, [x20, #96]
  402740:	a94153f3 	ldp	x19, x20, [sp, #16]
  402744:	a9425bf5 	ldp	x21, x22, [sp, #32]
  402748:	a8c37bfd 	ldp	x29, x30, [sp], #48
  40274c:	d65f03c0 	ret
  402750:	b0000280 	adrp	x0, 453000 <__PRETTY_FUNCTION__.1+0x578>
  402754:	91000000 	add	x0, x0, #0x0
  402758:	97fffd66 	bl	401cf0 <malloc_printerr>
  40275c:	d503201f 	nop

0000000000402760 <ptmalloc_init.part.0>:
  402760:	a9bc7bfd 	stp	x29, x30, [sp, #-64]!
  402764:	52800023 	mov	w3, #0x1                   	// #1
  402768:	d2800101 	mov	x1, #0x8                   	// #8
  40276c:	910003fd 	mov	x29, sp
  402770:	d2800022 	mov	x2, #0x1                   	// #1
  402774:	a9025bf5 	stp	x21, x22, [sp, #32]
  402778:	900004b5 	adrp	x21, 496000 <__pthread_keys+0x39d0>
  40277c:	9118c2b6 	add	x22, x21, #0x630
  402780:	a90153f3 	stp	x19, x20, [sp, #16]
  402784:	910022c0 	add	x0, x22, #0x8
  402788:	d28022c8 	mov	x8, #0x116                 	// #278
  40278c:	390016c3 	strb	w3, [x22, #5]
  402790:	d4000001 	svc	#0x0
  402794:	9100c3f3 	add	x19, sp, #0x30
  402798:	eb01001f 	cmp	x0, x1
  40279c:	54000200 	b.eq	4027dc <ptmalloc_init.part.0+0x7c>  // b.none
  4027a0:	2a0203e0 	mov	w0, w2
  4027a4:	aa1303e1 	mov	x1, x19
  4027a8:	94001d8e 	bl	409de0 <__clock_gettime>
  4027ac:	a94353e2 	ldp	x2, x20, [sp, #48]
  4027b0:	aa1303e1 	mov	x1, x19
  4027b4:	52800020 	mov	w0, #0x1                   	// #1
  4027b8:	4a020294 	eor	w20, w20, w2
  4027bc:	4ad42294 	eor	w20, w20, w20, ror #8
  4027c0:	f90006d4 	str	x20, [x22, #8]
  4027c4:	94001d87 	bl	409de0 <__clock_gettime>
  4027c8:	a94303e1 	ldp	x1, x0, [sp, #48]
  4027cc:	4a010000 	eor	w0, w0, w1
  4027d0:	4ac02000 	eor	w0, w0, w0, ror #8
  4027d4:	aa148014 	orr	x20, x0, x20, lsl #32
  4027d8:	f90006d4 	str	x20, [x22, #8]
  4027dc:	d2a00002 	movz	x2, #0x0, lsl #16
  4027e0:	f2800502 	movk	x2, #0x28
  4027e4:	d53bd044 	mrs	x4, tpidr_el0
  4027e8:	d0000463 	adrp	x3, 490000 <.got.plt+0x18>
  4027ec:	9103c065 	add	x5, x3, #0xf0
  4027f0:	910180a0 	add	x0, x5, #0x60
  4027f4:	912140a1 	add	x1, x5, #0x850
  4027f8:	f8226885 	str	x5, [x4, x2]
  4027fc:	d503201f 	nop
  402800:	a9010000 	stp	x0, x0, [x0, #16]
  402804:	91004000 	add	x0, x0, #0x10
  402808:	eb00003f 	cmp	x1, x0
  40280c:	54ffffa1 	b.ne	402800 <ptmalloc_init.part.0+0xa0>  // b.any
  402810:	9118c2a0 	add	x0, x21, #0x630
  402814:	12800fe2 	mov	w2, #0xffffff80            	// #-128
  402818:	9103c063 	add	x3, x3, #0xf0
  40281c:	91002061 	add	x1, x3, #0x8
  402820:	39001002 	strb	w2, [x0, #4]
  402824:	b900003f 	str	wzr, [x1]
  402828:	91018064 	add	x4, x3, #0x60
  40282c:	aa1303e1 	mov	x1, x19
  402830:	52800280 	mov	w0, #0x14                  	// #20
  402834:	f0ffffe2 	adrp	x2, 401000 <__libc_setup_tls+0x240>
  402838:	912f8042 	add	x2, x2, #0xbe0
  40283c:	f9003064 	str	x4, [x3, #96]
  402840:	94002698 	bl	40c2a0 <__tunable_get_val>
  402844:	aa1303e1 	mov	x1, x19
  402848:	52800200 	mov	w0, #0x10                  	// #16
  40284c:	f0ffffe2 	adrp	x2, 401000 <__libc_setup_tls+0x240>
  402850:	91300042 	add	x2, x2, #0xc00
  402854:	94002693 	bl	40c2a0 <__tunable_get_val>
  402858:	aa1303e1 	mov	x1, x19
  40285c:	528001c0 	mov	w0, #0xe                   	// #14
  402860:	f0ffffe2 	adrp	x2, 401000 <__libc_setup_tls+0x240>
  402864:	912e8042 	add	x2, x2, #0xba0
  402868:	9400268e 	bl	40c2a0 <__tunable_get_val>
  40286c:	aa1303e1 	mov	x1, x19
  402870:	528002a0 	mov	w0, #0x15                  	// #21
  402874:	f0ffffe2 	adrp	x2, 401000 <__libc_setup_tls+0x240>
  402878:	91304042 	add	x2, x2, #0xc10
  40287c:	94002689 	bl	40c2a0 <__tunable_get_val>
  402880:	aa1303e1 	mov	x1, x19
  402884:	528001a0 	mov	w0, #0xd                   	// #13
  402888:	f0ffffe2 	adrp	x2, 401000 <__libc_setup_tls+0x240>
  40288c:	912f0042 	add	x2, x2, #0xbc0
  402890:	94002684 	bl	40c2a0 <__tunable_get_val>
  402894:	aa1303e1 	mov	x1, x19
  402898:	52800120 	mov	w0, #0x9                   	// #9
  40289c:	f0ffffe2 	adrp	x2, 401000 <__libc_setup_tls+0x240>
  4028a0:	9130b042 	add	x2, x2, #0xc2c
  4028a4:	9400267f 	bl	40c2a0 <__tunable_get_val>
  4028a8:	aa1303e1 	mov	x1, x19
  4028ac:	52800140 	mov	w0, #0xa                   	// #10
  4028b0:	f0ffffe2 	adrp	x2, 401000 <__libc_setup_tls+0x240>
  4028b4:	91310042 	add	x2, x2, #0xc40
  4028b8:	9400267a 	bl	40c2a0 <__tunable_get_val>
  4028bc:	aa1303e1 	mov	x1, x19
  4028c0:	52800240 	mov	w0, #0x12                  	// #18
  4028c4:	f0ffffe2 	adrp	x2, 401000 <__libc_setup_tls+0x240>
  4028c8:	91314042 	add	x2, x2, #0xc50
  4028cc:	94002675 	bl	40c2a0 <__tunable_get_val>
  4028d0:	aa1303e1 	mov	x1, x19
  4028d4:	52800220 	mov	w0, #0x11                  	// #17
  4028d8:	f0ffffe2 	adrp	x2, 401000 <__libc_setup_tls+0x240>
  4028dc:	91323042 	add	x2, x2, #0xc8c
  4028e0:	94002670 	bl	40c2a0 <__tunable_get_val>
  4028e4:	aa1303e1 	mov	x1, x19
  4028e8:	52800260 	mov	w0, #0x13                  	// #19
  4028ec:	f0ffffe2 	adrp	x2, 401000 <__libc_setup_tls+0x240>
  4028f0:	9132b042 	add	x2, x2, #0xcac
  4028f4:	9400266b 	bl	40c2a0 <__tunable_get_val>
  4028f8:	aa1303e1 	mov	x1, x19
  4028fc:	528001e0 	mov	w0, #0xf                   	// #15
  402900:	f0ffffe2 	adrp	x2, 401000 <__libc_setup_tls+0x240>
  402904:	91330042 	add	x2, x2, #0xcc0
  402908:	94002666 	bl	40c2a0 <__tunable_get_val>
  40290c:	aa1303e1 	mov	x1, x19
  402910:	d0000473 	adrp	x19, 490000 <.got.plt+0x18>
  402914:	91014273 	add	x19, x19, #0x50
  402918:	52800180 	mov	w0, #0xc                   	// #12
  40291c:	f0ffffe2 	adrp	x2, 401000 <__libc_setup_tls+0x240>
  402920:	913cb042 	add	x2, x2, #0xf2c
  402924:	9400265f 	bl	40c2a0 <__tunable_get_val>
  402928:	f9401a60 	ldr	x0, [x19, #48]
  40292c:	b50000a0 	cbnz	x0, 402940 <ptmalloc_init.part.0+0x1e0>
  402930:	a94153f3 	ldp	x19, x20, [sp, #16]
  402934:	a9425bf5 	ldp	x21, x22, [sp, #32]
  402938:	a8c47bfd 	ldp	x29, x30, [sp], #64
  40293c:	d65f03c0 	ret
  402940:	528001c0 	mov	w0, #0xe                   	// #14
  402944:	940024e7 	bl	40bce0 <__tunable_is_initialized>
  402948:	370000a0 	tbnz	w0, #0, 40295c <ptmalloc_init.part.0+0x1fc>
  40294c:	f9401a61 	ldr	x1, [x19, #48]
  402950:	52800020 	mov	w0, #0x1                   	// #1
  402954:	f9000a61 	str	x1, [x19, #16]
  402958:	b9004a60 	str	w0, [x19, #72]
  40295c:	9118c2b5 	add	x21, x21, #0x630
  402960:	52800020 	mov	w0, #0x1                   	// #1
  402964:	390042a0 	strb	w0, [x21, #16]
  402968:	a94153f3 	ldp	x19, x20, [sp, #16]
  40296c:	a9425bf5 	ldp	x21, x22, [sp, #32]
  402970:	a8c47bfd 	ldp	x29, x30, [sp], #64
  402974:	d65f03c0 	ret
  402978:	d503201f 	nop
  40297c:	d503201f 	nop

0000000000402980 <alloc_new_heap>:
  402980:	a9bb7bfd 	stp	x29, x30, [sp, #-80]!
  402984:	910003fd 	mov	x29, sp
  402988:	a9025bf5 	stp	x21, x22, [sp, #32]
  40298c:	d0000476 	adrp	x22, 490000 <.got.plt+0x18>
  402990:	910142c4 	add	x4, x22, #0x50
  402994:	a90153f3 	stp	x19, x20, [sp, #16]
  402998:	aa0203f5 	mov	x21, x2
  40299c:	a9046bf9 	stp	x25, x26, [sp, #64]
  4029a0:	f9401884 	ldr	x4, [x4, #48]
  4029a4:	d37ef499 	lsl	x25, x4, #2
  4029a8:	b5000064 	cbnz	x4, 4029b4 <alloc_new_heap+0x34>
  4029ac:	d2900004 	mov	x4, #0x8000                	// #32768
  4029b0:	d2a08019 	mov	x25, #0x4000000             	// #67108864
  4029b4:	8b010001 	add	x1, x0, x1
  4029b8:	eb04003f 	cmp	x1, x4
  4029bc:	54000123 	b.cc	4029e0 <alloc_new_heap+0x60>  // b.lo, b.ul, b.last
  4029c0:	eb19003f 	cmp	x1, x25
  4029c4:	54000088 	b.hi	4029d4 <alloc_new_heap+0x54>  // b.pmore
  4029c8:	aa0103e4 	mov	x4, x1
  4029cc:	a90363f7 	stp	x23, x24, [sp, #48]
  4029d0:	14000005 	b	4029e4 <alloc_new_heap+0x64>
  4029d4:	aa1903e4 	mov	x4, x25
  4029d8:	eb19001f 	cmp	x0, x25
  4029dc:	54000a48 	b.hi	402b24 <alloc_new_heap+0x1a4>  // b.pmore
  4029e0:	a90363f7 	stp	x23, x24, [sp, #48]
  4029e4:	900004b7 	adrp	x23, 496000 <__pthread_keys+0x39d0>
  4029e8:	9118c2fa 	add	x26, x23, #0x630
  4029ec:	d10006a1 	sub	x1, x21, #0x1
  4029f0:	cb1503f4 	neg	x20, x21
  4029f4:	8b040021 	add	x1, x1, x4
  4029f8:	52800442 	mov	w2, #0x22                  	// #34
  4029fc:	8a010294 	and	x20, x20, x1
  402a00:	f9400f40 	ldr	x0, [x26, #24]
  402a04:	2a020078 	orr	w24, w3, w2
  402a08:	b4000500 	cbz	x0, 402aa8 <alloc_new_heap+0x128>
  402a0c:	2a1803e3 	mov	w3, w24
  402a10:	aa1903e1 	mov	x1, x25
  402a14:	d2800005 	mov	x5, #0x0                   	// #0
  402a18:	12800004 	mov	w4, #0xffffffff            	// #-1
  402a1c:	52800002 	mov	w2, #0x0                   	// #0
  402a20:	94001f20 	bl	40a6a0 <__mmap64>
  402a24:	f9000f5f 	str	xzr, [x26, #24]
  402a28:	aa0003f3 	mov	x19, x0
  402a2c:	b100041f 	cmn	x0, #0x1
  402a30:	540003c0 	b.eq	402aa8 <alloc_new_heap+0x128>  // b.none
  402a34:	d1000721 	sub	x1, x25, #0x1
  402a38:	ea01001f 	tst	x0, x1
  402a3c:	54000321 	b.ne	402aa0 <alloc_new_heap+0x120>  // b.any
  402a40:	aa1403e1 	mov	x1, x20
  402a44:	aa1303e0 	mov	x0, x19
  402a48:	52800062 	mov	w2, #0x3                   	// #3
  402a4c:	94001f2d 	bl	40a700 <__mprotect>
  402a50:	35000620 	cbnz	w0, 402b14 <alloc_new_heap+0x194>
  402a54:	910142d6 	add	x22, x22, #0x50
  402a58:	aa1303e0 	mov	x0, x19
  402a5c:	aa1403e1 	mov	x1, x20
  402a60:	b0000282 	adrp	x2, 453000 <__PRETTY_FUNCTION__.1+0x578>
  402a64:	9100a042 	add	x2, x2, #0x28
  402a68:	94001fae 	bl	40a920 <__set_vma_name>
  402a6c:	f94016c0 	ldr	x0, [x22, #40]
  402a70:	d1000400 	sub	x0, x0, #0x1
  402a74:	eb14001f 	cmp	x0, x20
  402a78:	54000643 	b.cc	402b40 <alloc_new_heap+0x1c0>  // b.lo, b.ul, b.last
  402a7c:	a9015274 	stp	x20, x20, [x19, #16]
  402a80:	aa1303e0 	mov	x0, x19
  402a84:	f9001275 	str	x21, [x19, #32]
  402a88:	a94363f7 	ldp	x23, x24, [sp, #48]
  402a8c:	a94153f3 	ldp	x19, x20, [sp, #16]
  402a90:	a9425bf5 	ldp	x21, x22, [sp, #32]
  402a94:	a9446bf9 	ldp	x25, x26, [sp, #64]
  402a98:	a8c57bfd 	ldp	x29, x30, [sp], #80
  402a9c:	d65f03c0 	ret
  402aa0:	aa1903e1 	mov	x1, x25
  402aa4:	94001f27 	bl	40a740 <__munmap>
  402aa8:	12800004 	mov	w4, #0xffffffff            	// #-1
  402aac:	2a1803e3 	mov	w3, w24
  402ab0:	d37ffb21 	lsl	x1, x25, #1
  402ab4:	d2800005 	mov	x5, #0x0                   	// #0
  402ab8:	52800002 	mov	w2, #0x0                   	// #0
  402abc:	d2800000 	mov	x0, #0x0                   	// #0
  402ac0:	94001ef8 	bl	40a6a0 <__mmap64>
  402ac4:	aa0003e4 	mov	x4, x0
  402ac8:	b100041f 	cmn	x0, #0x1
  402acc:	54000560 	b.eq	402b78 <alloc_new_heap+0x1f8>  // b.none
  402ad0:	d1000733 	sub	x19, x25, #0x1
  402ad4:	cb1903e1 	neg	x1, x25
  402ad8:	8b130013 	add	x19, x0, x19
  402adc:	8a010273 	and	x19, x19, x1
  402ae0:	eb000278 	subs	x24, x19, x0
  402ae4:	8b19027a 	add	x26, x19, x25
  402ae8:	54000421 	b.ne	402b6c <alloc_new_heap+0x1ec>  // b.any
  402aec:	9118c2f7 	add	x23, x23, #0x630
  402af0:	f9000efa 	str	x26, [x23, #24]
  402af4:	cb180321 	sub	x1, x25, x24
  402af8:	aa1a03e0 	mov	x0, x26
  402afc:	94001f11 	bl	40a740 <__munmap>
  402b00:	aa1403e1 	mov	x1, x20
  402b04:	aa1303e0 	mov	x0, x19
  402b08:	52800062 	mov	w2, #0x3                   	// #3
  402b0c:	94001efd 	bl	40a700 <__mprotect>
  402b10:	34fffa20 	cbz	w0, 402a54 <alloc_new_heap+0xd4>
  402b14:	aa1903e1 	mov	x1, x25
  402b18:	aa1303e0 	mov	x0, x19
  402b1c:	94001f09 	bl	40a740 <__munmap>
  402b20:	a94363f7 	ldp	x23, x24, [sp, #48]
  402b24:	d2800013 	mov	x19, #0x0                   	// #0
  402b28:	aa1303e0 	mov	x0, x19
  402b2c:	a94153f3 	ldp	x19, x20, [sp, #16]
  402b30:	a9425bf5 	ldp	x21, x22, [sp, #32]
  402b34:	a9446bf9 	ldp	x25, x26, [sp, #64]
  402b38:	a8c57bfd 	ldp	x29, x30, [sp], #80
  402b3c:	d65f03c0 	ret
  402b40:	b0000462 	adrp	x2, 48f000 <_IO_file_jumps+0xf8>
  402b44:	f947d442 	ldr	x2, [x2, #4008]
  402b48:	aa1403e1 	mov	x1, x20
  402b4c:	aa1303e0 	mov	x0, x19
  402b50:	f9400043 	ldr	x3, [x2]
  402b54:	d1000462 	sub	x2, x3, #0x1
  402b58:	ea130042 	ands	x2, x2, x19
  402b5c:	54000301 	b.ne	402bbc <alloc_new_heap+0x23c>  // b.any
  402b60:	528001c2 	mov	w2, #0xe                   	// #14
  402b64:	94001ec7 	bl	40a680 <__madvise>
  402b68:	17ffffc5 	b	402a7c <alloc_new_heap+0xfc>
  402b6c:	aa1803e1 	mov	x1, x24
  402b70:	94001ef4 	bl	40a740 <__munmap>
  402b74:	17ffffe0 	b	402af4 <alloc_new_heap+0x174>
  402b78:	2a1803e3 	mov	w3, w24
  402b7c:	aa1903e1 	mov	x1, x25
  402b80:	d2800005 	mov	x5, #0x0                   	// #0
  402b84:	52800002 	mov	w2, #0x0                   	// #0
  402b88:	d2800000 	mov	x0, #0x0                   	// #0
  402b8c:	94001ec5 	bl	40a6a0 <__mmap64>
  402b90:	aa0003f3 	mov	x19, x0
  402b94:	b100041f 	cmn	x0, #0x1
  402b98:	540001a0 	b.eq	402bcc <alloc_new_heap+0x24c>  // b.none
  402b9c:	d1000721 	sub	x1, x25, #0x1
  402ba0:	ea01001f 	tst	x0, x1
  402ba4:	54fff4e0 	b.eq	402a40 <alloc_new_heap+0xc0>  // b.none
  402ba8:	aa1903e1 	mov	x1, x25
  402bac:	d2800013 	mov	x19, #0x0                   	// #0
  402bb0:	94001ee4 	bl	40a740 <__munmap>
  402bb4:	a94363f7 	ldp	x23, x24, [sp, #48]
  402bb8:	17ffffdc 	b	402b28 <alloc_new_heap+0x1a8>
  402bbc:	cb0303e3 	neg	x3, x3
  402bc0:	8b020281 	add	x1, x20, x2
  402bc4:	8a130060 	and	x0, x3, x19
  402bc8:	17ffffe6 	b	402b60 <alloc_new_heap+0x1e0>
  402bcc:	a94363f7 	ldp	x23, x24, [sp, #48]
  402bd0:	d2800013 	mov	x19, #0x0                   	// #0
  402bd4:	17ffffd5 	b	402b28 <alloc_new_heap+0x1a8>
  402bd8:	d503201f 	nop
  402bdc:	d503201f 	nop

0000000000402be0 <new_heap>:
  402be0:	a9be7bfd 	stp	x29, x30, [sp, #-32]!
  402be4:	d0000463 	adrp	x3, 490000 <.got.plt+0x18>
  402be8:	91014063 	add	x3, x3, #0x50
  402bec:	910003fd 	mov	x29, sp
  402bf0:	a90153f3 	stp	x19, x20, [sp, #16]
  402bf4:	aa0003f3 	mov	x19, x0
  402bf8:	aa0103f4 	mov	x20, x1
  402bfc:	f9401862 	ldr	x2, [x3, #48]
  402c00:	b5000142 	cbnz	x2, 402c28 <new_heap+0x48>
  402c04:	b0000462 	adrp	x2, 48f000 <_IO_file_jumps+0xf8>
  402c08:	f947d442 	ldr	x2, [x2, #4008]
  402c0c:	aa1403e1 	mov	x1, x20
  402c10:	aa1303e0 	mov	x0, x19
  402c14:	52800003 	mov	w3, #0x0                   	// #0
  402c18:	a94153f3 	ldp	x19, x20, [sp, #16]
  402c1c:	a8c27bfd 	ldp	x29, x30, [sp], #32
  402c20:	f9400042 	ldr	x2, [x2]
  402c24:	17ffff57 	b	402980 <alloc_new_heap>
  402c28:	b9403863 	ldr	w3, [x3, #56]
  402c2c:	97ffff55 	bl	402980 <alloc_new_heap>
  402c30:	b4fffea0 	cbz	x0, 402c04 <new_heap+0x24>
  402c34:	a94153f3 	ldp	x19, x20, [sp, #16]
  402c38:	a8c27bfd 	ldp	x29, x30, [sp], #32
  402c3c:	d65f03c0 	ret

0000000000402c40 <arena_get2>:
  402c40:	a9ba7bfd 	stp	x29, x30, [sp, #-96]!
  402c44:	910003fd 	mov	x29, sp
  402c48:	a90153f3 	stp	x19, x20, [sp, #16]
  402c4c:	900004b4 	adrp	x20, 496000 <__pthread_keys+0x39d0>
  402c50:	9118c282 	add	x2, x20, #0x630
  402c54:	a9025bf5 	stp	x21, x22, [sp, #32]
  402c58:	d53bd056 	mrs	x22, tpidr_el0
  402c5c:	d2a00015 	movz	x21, #0x0, lsl #16
  402c60:	f2800515 	movk	x21, #0x28
  402c64:	a90363f7 	stp	x23, x24, [sp, #48]
  402c68:	aa0003f7 	mov	x23, x0
  402c6c:	aa0103f8 	mov	x24, x1
  402c70:	a9046bf9 	stp	x25, x26, [sp, #64]
  402c74:	f9401043 	ldr	x3, [x2, #32]
  402c78:	f8756ad9 	ldr	x25, [x22, x21]
  402c7c:	b4000543 	cbz	x3, 402d24 <arena_get2+0xe4>
  402c80:	9100a053 	add	x19, x2, #0x28
  402c84:	52800021 	mov	w1, #0x1                   	// #1
  402c88:	aa1303e2 	mov	x2, x19
  402c8c:	52800000 	mov	w0, #0x0                   	// #0
  402c90:	94011c34 	bl	449d60 <__aarch64_cas4_acq>
  402c94:	350010c0 	cbnz	w0, 402eac <arena_get2+0x26c>
  402c98:	9118c281 	add	x1, x20, #0x630
  402c9c:	f9401033 	ldr	x19, [x1, #32]
  402ca0:	b4000d93 	cbz	x19, 402e50 <arena_get2+0x210>
  402ca4:	f9444260 	ldr	x0, [x19, #2176]
  402ca8:	f9443e62 	ldr	x2, [x19, #2168]
  402cac:	f9001022 	str	x2, [x1, #32]
  402cb0:	b50022e0 	cbnz	x0, 40310c <arena_get2+0x4cc>
  402cb4:	d2800020 	mov	x0, #0x1                   	// #1
  402cb8:	f9044260 	str	x0, [x19, #2176]
  402cbc:	b40000b9 	cbz	x25, 402cd0 <arena_get2+0x90>
  402cc0:	f9444320 	ldr	x0, [x25, #2176]
  402cc4:	b4002200 	cbz	x0, 403104 <arena_get2+0x4c4>
  402cc8:	d1000400 	sub	x0, x0, #0x1
  402ccc:	f9044320 	str	x0, [x25, #2176]
  402cd0:	9100a021 	add	x1, x1, #0x28
  402cd4:	52800000 	mov	w0, #0x0                   	// #0
  402cd8:	94011cbe 	bl	449fd0 <__aarch64_swp4_rel>
  402cdc:	7100041f 	cmp	w0, #0x1
  402ce0:	54000ecc 	b.gt	402eb8 <arena_get2+0x278>
  402ce4:	aa1303e2 	mov	x2, x19
  402ce8:	52800021 	mov	w1, #0x1                   	// #1
  402cec:	52800000 	mov	w0, #0x0                   	// #0
  402cf0:	94011c1c 	bl	449d60 <__aarch64_cas4_acq>
  402cf4:	35000120 	cbnz	w0, 402d18 <arena_get2+0xd8>
  402cf8:	f8356ad3 	str	x19, [x22, x21]
  402cfc:	aa1303e0 	mov	x0, x19
  402d00:	a94153f3 	ldp	x19, x20, [sp, #16]
  402d04:	a9425bf5 	ldp	x21, x22, [sp, #32]
  402d08:	a94363f7 	ldp	x23, x24, [sp, #48]
  402d0c:	a9446bf9 	ldp	x25, x26, [sp, #64]
  402d10:	a8c67bfd 	ldp	x29, x30, [sp], #96
  402d14:	d65f03c0 	ret
  402d18:	aa1303e0 	mov	x0, x19
  402d1c:	97fffad9 	bl	401880 <__lll_lock_wait_private>
  402d20:	17fffff6 	b	402cf8 <arena_get2+0xb8>
  402d24:	f9002bfb 	str	x27, [sp, #80]
  402d28:	9118c29a 	add	x26, x20, #0x630
  402d2c:	d000047b 	adrp	x27, 490000 <.got.plt+0x18>
  402d30:	91014379 	add	x25, x27, #0x50
  402d34:	f9401b40 	ldr	x0, [x26, #48]
  402d38:	f9404733 	ldr	x19, [x25, #136]
  402d3c:	b5000120 	cbnz	x0, 402d60 <arena_get2+0x120>
  402d40:	f9401320 	ldr	x0, [x25, #32]
  402d44:	b5000b00 	cbnz	x0, 402ea4 <arena_get2+0x264>
  402d48:	f9400f21 	ldr	x1, [x25, #24]
  402d4c:	eb01027f 	cmp	x19, x1
  402d50:	540009e8 	b.hi	402e8c <arena_get2+0x24c>  // b.pmore
  402d54:	d503201f 	nop
  402d58:	d503201f 	nop
  402d5c:	d503201f 	nop
  402d60:	d1000400 	sub	x0, x0, #0x1
  402d64:	eb13001f 	cmp	x0, x19
  402d68:	54000d42 	b.cs	402f10 <arena_get2+0x2d0>  // b.hs, b.nlast
  402d6c:	9118c280 	add	x0, x20, #0x630
  402d70:	f9402013 	ldr	x19, [x0, #64]
  402d74:	b4000833 	cbz	x19, 402e78 <arena_get2+0x238>
  402d78:	aa1303e2 	mov	x2, x19
  402d7c:	52800021 	mov	w1, #0x1                   	// #1
  402d80:	52800000 	mov	w0, #0x0                   	// #0
  402d84:	94011bf7 	bl	449d60 <__aarch64_cas4_acq>
  402d88:	35000a60 	cbnz	w0, 402ed4 <arena_get2+0x294>
  402d8c:	9118c297 	add	x23, x20, #0x630
  402d90:	52800021 	mov	w1, #0x1                   	// #1
  402d94:	9100a2f7 	add	x23, x23, #0x28
  402d98:	52800000 	mov	w0, #0x0                   	// #0
  402d9c:	f8756ad8 	ldr	x24, [x22, x21]
  402da0:	aa1703e2 	mov	x2, x23
  402da4:	94011bef 	bl	449d60 <__aarch64_cas4_acq>
  402da8:	35000900 	cbnz	w0, 402ec8 <arena_get2+0x288>
  402dac:	b40000b8 	cbz	x24, 402dc0 <arena_get2+0x180>
  402db0:	f9444300 	ldr	x0, [x24, #2176]
  402db4:	b4001aa0 	cbz	x0, 403108 <arena_get2+0x4c8>
  402db8:	d1000400 	sub	x0, x0, #0x1
  402dbc:	f9044300 	str	x0, [x24, #2176]
  402dc0:	9118c282 	add	x2, x20, #0x630
  402dc4:	f9401040 	ldr	x0, [x2, #32]
  402dc8:	b4000180 	cbz	x0, 402df8 <arena_get2+0x1b8>
  402dcc:	91008042 	add	x2, x2, #0x20
  402dd0:	14000004 	b	402de0 <arena_get2+0x1a0>
  402dd4:	9121e002 	add	x2, x0, #0x878
  402dd8:	b4000101 	cbz	x1, 402df8 <arena_get2+0x1b8>
  402ddc:	aa0103e0 	mov	x0, x1
  402de0:	f9444001 	ldr	x1, [x0, #2176]
  402de4:	b5000be1 	cbnz	x1, 402f60 <arena_get2+0x320>
  402de8:	f9443c01 	ldr	x1, [x0, #2168]
  402dec:	eb13001f 	cmp	x0, x19
  402df0:	54ffff21 	b.ne	402dd4 <arena_get2+0x194>  // b.any
  402df4:	f9000041 	str	x1, [x2]
  402df8:	f9444261 	ldr	x1, [x19, #2176]
  402dfc:	9118c297 	add	x23, x20, #0x630
  402e00:	9100a2f7 	add	x23, x23, #0x28
  402e04:	52800000 	mov	w0, #0x0                   	// #0
  402e08:	91000421 	add	x1, x1, #0x1
  402e0c:	f9044261 	str	x1, [x19, #2176]
  402e10:	aa1703e1 	mov	x1, x23
  402e14:	94011c6f 	bl	449fd0 <__aarch64_swp4_rel>
  402e18:	7100041f 	cmp	w0, #0x1
  402e1c:	5400092c 	b.gt	402f40 <arena_get2+0x300>
  402e20:	9118c294 	add	x20, x20, #0x630
  402e24:	f8356ad3 	str	x19, [x22, x21]
  402e28:	f9443a60 	ldr	x0, [x19, #2160]
  402e2c:	f9402bfb 	ldr	x27, [sp, #80]
  402e30:	f9002280 	str	x0, [x20, #64]
  402e34:	aa1303e0 	mov	x0, x19
  402e38:	a94153f3 	ldp	x19, x20, [sp, #16]
  402e3c:	a9425bf5 	ldp	x21, x22, [sp, #32]
  402e40:	a94363f7 	ldp	x23, x24, [sp, #48]
  402e44:	a9446bf9 	ldp	x25, x26, [sp, #64]
  402e48:	a8c67bfd 	ldp	x29, x30, [sp], #96
  402e4c:	d65f03c0 	ret
  402e50:	9100a033 	add	x19, x1, #0x28
  402e54:	52800000 	mov	w0, #0x0                   	// #0
  402e58:	aa1303e1 	mov	x1, x19
  402e5c:	f9002bfb 	str	x27, [sp, #80]
  402e60:	94011c5c 	bl	449fd0 <__aarch64_swp4_rel>
  402e64:	7100041f 	cmp	w0, #0x1
  402e68:	54fff60d 	b.le	402d28 <arena_get2+0xe8>
  402e6c:	aa1303e0 	mov	x0, x19
  402e70:	97fffac4 	bl	401980 <__lll_lock_wake_private>
  402e74:	17ffffad 	b	402d28 <arena_get2+0xe8>
  402e78:	d0000461 	adrp	x1, 490000 <.got.plt+0x18>
  402e7c:	9103c021 	add	x1, x1, #0xf0
  402e80:	aa0103f3 	mov	x19, x1
  402e84:	f9002001 	str	x1, [x0, #64]
  402e88:	17ffffbc 	b	402d78 <arena_get2+0x138>
  402e8c:	94001d96 	bl	40a4e4 <__get_nprocs>
  402e90:	7100001f 	cmp	w0, #0x0
  402e94:	540005cd 	b.le	402f4c <arena_get2+0x30c>
  402e98:	531d7000 	lsl	w0, w0, #3
  402e9c:	f9404733 	ldr	x19, [x25, #136]
  402ea0:	93407c00 	sxtw	x0, w0
  402ea4:	f9001b40 	str	x0, [x26, #48]
  402ea8:	17ffffae 	b	402d60 <arena_get2+0x120>
  402eac:	aa1303e0 	mov	x0, x19
  402eb0:	97fffa74 	bl	401880 <__lll_lock_wait_private>
  402eb4:	17ffff79 	b	402c98 <arena_get2+0x58>
  402eb8:	9118c280 	add	x0, x20, #0x630
  402ebc:	9100a000 	add	x0, x0, #0x28
  402ec0:	97fffab0 	bl	401980 <__lll_lock_wake_private>
  402ec4:	17ffff88 	b	402ce4 <arena_get2+0xa4>
  402ec8:	aa1703e0 	mov	x0, x23
  402ecc:	97fffa6d 	bl	401880 <__lll_lock_wait_private>
  402ed0:	17ffffb7 	b	402dac <arena_get2+0x16c>
  402ed4:	9118c280 	add	x0, x20, #0x630
  402ed8:	f9443a73 	ldr	x19, [x19, #2160]
  402edc:	f9402000 	ldr	x0, [x0, #64]
  402ee0:	eb00027f 	cmp	x19, x0
  402ee4:	54fff4a1 	b.ne	402d78 <arena_get2+0x138>  // b.any
  402ee8:	eb13031f 	cmp	x24, x19
  402eec:	54001220 	b.eq	403130 <arena_get2+0x4f0>  // b.none
  402ef0:	aa1303e2 	mov	x2, x19
  402ef4:	52800021 	mov	w1, #0x1                   	// #1
  402ef8:	52800000 	mov	w0, #0x0                   	// #0
  402efc:	94011b99 	bl	449d60 <__aarch64_cas4_acq>
  402f00:	34fff460 	cbz	w0, 402d8c <arena_get2+0x14c>
  402f04:	aa1303e0 	mov	x0, x19
  402f08:	97fffa5e 	bl	401880 <__lll_lock_wait_private>
  402f0c:	17ffffa0 	b	402d8c <arena_get2+0x14c>
  402f10:	91014379 	add	x25, x27, #0x50
  402f14:	91000661 	add	x1, x19, #0x1
  402f18:	9102233a 	add	x26, x25, #0x88
  402f1c:	aa1303e0 	mov	x0, x19
  402f20:	aa1a03e2 	mov	x2, x26
  402f24:	94011b9b 	bl	449d90 <__aarch64_cas8_acq>
  402f28:	eb13001f 	cmp	x0, x19
  402f2c:	540002a0 	b.eq	402f80 <arena_get2+0x340>  // b.none
  402f30:	9118c280 	add	x0, x20, #0x630
  402f34:	f9404733 	ldr	x19, [x25, #136]
  402f38:	f9401800 	ldr	x0, [x0, #48]
  402f3c:	17ffff89 	b	402d60 <arena_get2+0x120>
  402f40:	aa1703e0 	mov	x0, x23
  402f44:	97fffa8f 	bl	401980 <__lll_lock_wake_private>
  402f48:	17ffffb6 	b	402e20 <arena_get2+0x1e0>
  402f4c:	f9404733 	ldr	x19, [x25, #136]
  402f50:	d2800201 	mov	x1, #0x10                  	// #16
  402f54:	aa0103e0 	mov	x0, x1
  402f58:	f9001b41 	str	x1, [x26, #48]
  402f5c:	17ffff81 	b	402d60 <arena_get2+0x120>
  402f60:	b0000283 	adrp	x3, 453000 <__PRETTY_FUNCTION__.1+0x578>
  402f64:	90000281 	adrp	x1, 452000 <__pthread_mutex_cond_lock_full+0x680>
  402f68:	b0000280 	adrp	x0, 453000 <__PRETTY_FUNCTION__.1+0x578>
  402f6c:	913b2063 	add	x3, x3, #0xec8
  402f70:	912dc021 	add	x1, x1, #0xb70
  402f74:	91018000 	add	x0, x0, #0x60
  402f78:	52805ca2 	mov	w2, #0x2e5                 	// #741
  402f7c:	94002839 	bl	40d060 <__libc_assert_fail>
  402f80:	f9400721 	ldr	x1, [x25, #8]
  402f84:	912362e0 	add	x0, x23, #0x8d8
  402f88:	97ffff16 	bl	402be0 <new_heap>
  402f8c:	aa0003e3 	mov	x3, x0
  402f90:	b4000ac0 	cbz	x0, 4030e8 <arena_get2+0x4a8>
  402f94:	aa0303e0 	mov	x0, x3
  402f98:	9100c077 	add	x23, x3, #0x30
  402f9c:	aa1703f3 	mov	x19, x23
  402fa0:	91220061 	add	x1, x3, #0x880
  402fa4:	f8090417 	str	x23, [x0], #144
  402fa8:	a9010000 	stp	x0, x0, [x0, #16]
  402fac:	91004000 	add	x0, x0, #0x10
  402fb0:	eb01001f 	cmp	x0, x1
  402fb4:	54ffffa1 	b.ne	402fa8 <arena_get2+0x368>  // b.any
  402fb8:	d000047a 	adrp	x26, 490000 <.got.plt+0x18>
  402fbc:	9103c340 	add	x0, x26, #0xf0
  402fc0:	eb0002ff 	cmp	x23, x0
  402fc4:	540008a0 	b.eq	4030d8 <arena_get2+0x498>  // b.none
  402fc8:	b94006e0 	ldr	w0, [x23, #4]
  402fcc:	321f0000 	orr	w0, w0, #0x2
  402fd0:	b90006e0 	str	w0, [x23, #4]
  402fd4:	9100e060 	add	x0, x3, #0x38
  402fd8:	b900001f 	str	wzr, [x0]
  402fdc:	91236061 	add	x1, x3, #0x8d8
  402fe0:	f2400c21 	ands	x1, x1, #0xf
  402fe4:	91232060 	add	x0, x3, #0x8c8
  402fe8:	f9400864 	ldr	x4, [x3, #16]
  402fec:	cb010002 	sub	x2, x0, x1
  402ff0:	91004041 	add	x1, x2, #0x10
  402ff4:	f90446e4 	str	x4, [x23, #2184]
  402ff8:	9a801020 	csel	x0, x1, x0, ne	// ne = any
  402ffc:	8b040062 	add	x2, x3, x4
  403000:	cb000042 	sub	x2, x2, x0
  403004:	d2800021 	mov	x1, #0x1                   	// #1
  403008:	f90032e0 	str	x0, [x23, #96]
  40300c:	aa010042 	orr	x2, x2, x1
  403010:	f90442e1 	str	x1, [x23, #2176]
  403014:	9118c299 	add	x25, x20, #0x630
  403018:	f9044ae4 	str	x4, [x23, #2192]
  40301c:	9100e339 	add	x25, x25, #0x38
  403020:	f9000402 	str	x2, [x0, #8]
  403024:	aa1903e2 	mov	x2, x25
  403028:	f8756ad8 	ldr	x24, [x22, x21]
  40302c:	f8356ad7 	str	x23, [x22, x21]
  403030:	b900307f 	str	wzr, [x3, #48]
  403034:	52800000 	mov	w0, #0x0                   	// #0
  403038:	94011b4a 	bl	449d60 <__aarch64_cas4_acq>
  40303c:	35000aa0 	cbnz	w0, 403190 <arena_get2+0x550>
  403040:	9103c35a 	add	x26, x26, #0xf0
  403044:	f9443b40 	ldr	x0, [x26, #2160]
  403048:	f9043ae0 	str	x0, [x23, #2160]
  40304c:	d5033bbf 	dmb	ish
  403050:	9118c295 	add	x21, x20, #0x630
  403054:	f9043b57 	str	x23, [x26, #2160]
  403058:	9100e2b5 	add	x21, x21, #0x38
  40305c:	52800000 	mov	w0, #0x0                   	// #0
  403060:	aa1503e1 	mov	x1, x21
  403064:	94011bdb 	bl	449fd0 <__aarch64_swp4_rel>
  403068:	7100041f 	cmp	w0, #0x1
  40306c:	540008cc 	b.gt	403184 <arena_get2+0x544>
  403070:	9118c295 	add	x21, x20, #0x630
  403074:	52800021 	mov	w1, #0x1                   	// #1
  403078:	9100a2b5 	add	x21, x21, #0x28
  40307c:	52800000 	mov	w0, #0x0                   	// #0
  403080:	aa1503e2 	mov	x2, x21
  403084:	94011b37 	bl	449d60 <__aarch64_cas4_acq>
  403088:	35000780 	cbnz	w0, 403178 <arena_get2+0x538>
  40308c:	b40000b8 	cbz	x24, 4030a0 <arena_get2+0x460>
  403090:	f9444300 	ldr	x0, [x24, #2176]
  403094:	b40003a0 	cbz	x0, 403108 <arena_get2+0x4c8>
  403098:	d1000400 	sub	x0, x0, #0x1
  40309c:	f9044300 	str	x0, [x24, #2176]
  4030a0:	9118c294 	add	x20, x20, #0x630
  4030a4:	52800000 	mov	w0, #0x0                   	// #0
  4030a8:	9100a294 	add	x20, x20, #0x28
  4030ac:	aa1403e1 	mov	x1, x20
  4030b0:	94011bc8 	bl	449fd0 <__aarch64_swp4_rel>
  4030b4:	7100041f 	cmp	w0, #0x1
  4030b8:	540005ac 	b.gt	40316c <arena_get2+0x52c>
  4030bc:	aa1703e2 	mov	x2, x23
  4030c0:	52800021 	mov	w1, #0x1                   	// #1
  4030c4:	52800000 	mov	w0, #0x0                   	// #0
  4030c8:	94011b26 	bl	449d60 <__aarch64_cas4_acq>
  4030cc:	35000480 	cbnz	w0, 40315c <arena_get2+0x51c>
  4030d0:	f9402bfb 	ldr	x27, [sp, #80]
  4030d4:	17ffff0a 	b	402cfc <arena_get2+0xbc>
  4030d8:	9118c280 	add	x0, x20, #0x630
  4030dc:	12800fe1 	mov	w1, #0xffffff80            	// #-128
  4030e0:	39001001 	strb	w1, [x0, #4]
  4030e4:	17ffffbc 	b	402fd4 <arena_get2+0x394>
  4030e8:	f9400721 	ldr	x1, [x25, #8]
  4030ec:	d2811b00 	mov	x0, #0x8d8                 	// #2264
  4030f0:	97fffebc 	bl	402be0 <new_heap>
  4030f4:	aa0003f3 	mov	x19, x0
  4030f8:	b4000200 	cbz	x0, 403138 <arena_get2+0x4f8>
  4030fc:	aa0003e3 	mov	x3, x0
  403100:	17ffffa5 	b	402f94 <arena_get2+0x354>
  403104:	f9002bfb 	str	x27, [sp, #80]
  403108:	97fffb7f 	bl	401f04 <detach_arena.part.0>
  40310c:	90000283 	adrp	x3, 453000 <__PRETTY_FUNCTION__.1+0x578>
  403110:	f0000261 	adrp	x1, 452000 <__pthread_mutex_cond_lock_full+0x680>
  403114:	90000280 	adrp	x0, 453000 <__PRETTY_FUNCTION__.1+0x578>
  403118:	913bc063 	add	x3, x3, #0xef0
  40311c:	912dc021 	add	x1, x1, #0xb70
  403120:	91010000 	add	x0, x0, #0x40
  403124:	52805962 	mov	w2, #0x2cb                 	// #715
  403128:	f9002bfb 	str	x27, [sp, #80]
  40312c:	940027cd 	bl	40d060 <__libc_assert_fail>
  403130:	f9443a73 	ldr	x19, [x19, #2160]
  403134:	17ffff6f 	b	402ef0 <arena_get2+0x2b0>
  403138:	f9404734 	ldr	x20, [x25, #136]
  40313c:	aa1a03e2 	mov	x2, x26
  403140:	d1000681 	sub	x1, x20, #0x1
  403144:	aa1403e0 	mov	x0, x20
  403148:	94011b12 	bl	449d90 <__aarch64_cas8_acq>
  40314c:	eb00029f 	cmp	x20, x0
  403150:	54ffff41 	b.ne	403138 <arena_get2+0x4f8>  // b.any
  403154:	f9402bfb 	ldr	x27, [sp, #80]
  403158:	17fffee9 	b	402cfc <arena_get2+0xbc>
  40315c:	aa1703e0 	mov	x0, x23
  403160:	97fff9c8 	bl	401880 <__lll_lock_wait_private>
  403164:	f9402bfb 	ldr	x27, [sp, #80]
  403168:	17fffee5 	b	402cfc <arena_get2+0xbc>
  40316c:	aa1403e0 	mov	x0, x20
  403170:	97fffa04 	bl	401980 <__lll_lock_wake_private>
  403174:	17ffffd2 	b	4030bc <arena_get2+0x47c>
  403178:	aa1503e0 	mov	x0, x21
  40317c:	97fff9c1 	bl	401880 <__lll_lock_wait_private>
  403180:	17ffffc3 	b	40308c <arena_get2+0x44c>
  403184:	aa1503e0 	mov	x0, x21
  403188:	97fff9fe 	bl	401980 <__lll_lock_wake_private>
  40318c:	17ffffb9 	b	403070 <arena_get2+0x430>
  403190:	aa1903e0 	mov	x0, x25
  403194:	97fff9bb 	bl	401880 <__lll_lock_wait_private>
  403198:	17ffffaa 	b	403040 <arena_get2+0x400>
  40319c:	d503201f 	nop

00000000004031a0 <arena_get_retry>:
  4031a0:	a9bd7bfd 	stp	x29, x30, [sp, #-48]!
  4031a4:	910003fd 	mov	x29, sp
  4031a8:	a90153f3 	stp	x19, x20, [sp, #16]
  4031ac:	aa0003f3 	mov	x19, x0
  4031b0:	b0000474 	adrp	x20, 490000 <.got.plt+0x18>
  4031b4:	9103c280 	add	x0, x20, #0xf0
  4031b8:	eb00027f 	cmp	x19, x0
  4031bc:	54000200 	b.eq	4031fc <arena_get_retry+0x5c>  // b.none
  4031c0:	aa1303e1 	mov	x1, x19
  4031c4:	52800000 	mov	w0, #0x0                   	// #0
  4031c8:	94011b82 	bl	449fd0 <__aarch64_swp4_rel>
  4031cc:	7100041f 	cmp	w0, #0x1
  4031d0:	5400036c 	b.gt	40323c <arena_get_retry+0x9c>
  4031d4:	9103c293 	add	x19, x20, #0xf0
  4031d8:	52800021 	mov	w1, #0x1                   	// #1
  4031dc:	aa1303e2 	mov	x2, x19
  4031e0:	52800000 	mov	w0, #0x0                   	// #0
  4031e4:	94011adf 	bl	449d60 <__aarch64_cas4_acq>
  4031e8:	35000240 	cbnz	w0, 403230 <arena_get_retry+0x90>
  4031ec:	9103c280 	add	x0, x20, #0xf0
  4031f0:	a94153f3 	ldp	x19, x20, [sp, #16]
  4031f4:	a8c37bfd 	ldp	x29, x30, [sp], #48
  4031f8:	d65f03c0 	ret
  4031fc:	52800000 	mov	w0, #0x0                   	// #0
  403200:	f90013f5 	str	x21, [sp, #32]
  403204:	aa0103f5 	mov	x21, x1
  403208:	aa1303e1 	mov	x1, x19
  40320c:	94011b71 	bl	449fd0 <__aarch64_swp4_rel>
  403210:	7100041f 	cmp	w0, #0x1
  403214:	540001ac 	b.gt	403248 <arena_get_retry+0xa8>
  403218:	9103c281 	add	x1, x20, #0xf0
  40321c:	aa1503e0 	mov	x0, x21
  403220:	f94013f5 	ldr	x21, [sp, #32]
  403224:	a94153f3 	ldp	x19, x20, [sp, #16]
  403228:	a8c37bfd 	ldp	x29, x30, [sp], #48
  40322c:	17fffe85 	b	402c40 <arena_get2>
  403230:	aa1303e0 	mov	x0, x19
  403234:	97fff993 	bl	401880 <__lll_lock_wait_private>
  403238:	17ffffed 	b	4031ec <arena_get_retry+0x4c>
  40323c:	aa1303e0 	mov	x0, x19
  403240:	97fff9d0 	bl	401980 <__lll_lock_wake_private>
  403244:	17ffffe4 	b	4031d4 <arena_get_retry+0x34>
  403248:	aa1303e0 	mov	x0, x19
  40324c:	97fff9cd 	bl	401980 <__lll_lock_wake_private>
  403250:	17fffff2 	b	403218 <arena_get_retry+0x78>
  403254:	d503201f 	nop
  403258:	d503201f 	nop
  40325c:	d503201f 	nop

0000000000403260 <sysmalloc_mmap_fallback.constprop.0>:
  403260:	a9bc7bfd 	stp	x29, x30, [sp, #-64]!
  403264:	910003fd 	mov	x29, sp
  403268:	a90363f7 	stp	x23, x24, [sp, #48]
  40326c:	b0000477 	adrp	x23, 490000 <.got.plt+0x18>
  403270:	9103c2e6 	add	x6, x23, #0xf0
  403274:	a90153f3 	stp	x19, x20, [sp, #16]
  403278:	2a0503f8 	mov	w24, w5
  40327c:	a9025bf5 	stp	x21, x22, [sp, #32]
  403280:	aa0003f6 	mov	x22, x0
  403284:	b94004c0 	ldr	w0, [x6, #4]
  403288:	f94002d3 	ldr	x19, [x22]
  40328c:	aa1303f4 	mov	x20, x19
  403290:	370800e0 	tbnz	w0, #1, 4032ac <sysmalloc_mmap_fallback.constprop.0+0x4c>
  403294:	8b130042 	add	x2, x2, x19
  403298:	d1000480 	sub	x0, x4, #0x1
  40329c:	8b000042 	add	x2, x2, x0
  4032a0:	cb0403e4 	neg	x4, x4
  4032a4:	8a040053 	and	x19, x2, x4
  4032a8:	aa1303f4 	mov	x20, x19
  4032ac:	eb13007f 	cmp	x3, x19
  4032b0:	d2800015 	mov	x21, #0x0                   	// #0
  4032b4:	9a839273 	csel	x19, x19, x3, ls	// ls = plast
  4032b8:	eb14007f 	cmp	x3, x20
  4032bc:	9a939294 	csel	x20, x20, x19, ls	// ls = plast
  4032c0:	eb14003f 	cmp	x1, x20
  4032c4:	540002e2 	b.cs	403320 <sysmalloc_mmap_fallback.constprop.0+0xc0>  // b.hs, b.nlast
  4032c8:	aa1403e1 	mov	x1, x20
  4032cc:	52800443 	mov	w3, #0x22                  	// #34
  4032d0:	d2800005 	mov	x5, #0x0                   	// #0
  4032d4:	2a030303 	orr	w3, w24, w3
  4032d8:	12800004 	mov	w4, #0xffffffff            	// #-1
  4032dc:	52800062 	mov	w2, #0x3                   	// #3
  4032e0:	d2800000 	mov	x0, #0x0                   	// #0
  4032e4:	94001cef 	bl	40a6a0 <__mmap64>
  4032e8:	aa0003f5 	mov	x21, x0
  4032ec:	b100041f 	cmn	x0, #0x1
  4032f0:	54000180 	b.eq	403320 <sysmalloc_mmap_fallback.constprop.0+0xc0>  // b.none
  4032f4:	36900238 	tbz	w24, #18, 403338 <sysmalloc_mmap_fallback.constprop.0+0xd8>
  4032f8:	9103c2f7 	add	x23, x23, #0xf0
  4032fc:	aa1503e0 	mov	x0, x21
  403300:	aa1403e1 	mov	x1, x20
  403304:	90000282 	adrp	x2, 453000 <__PRETTY_FUNCTION__.1+0x578>
  403308:	91020042 	add	x2, x2, #0x80
  40330c:	94001d85 	bl	40a920 <__set_vma_name>
  403310:	b94006e0 	ldr	w0, [x23, #4]
  403314:	321f0000 	orr	w0, w0, #0x2
  403318:	b90006e0 	str	w0, [x23, #4]
  40331c:	f90002d3 	str	x19, [x22]
  403320:	aa1503e0 	mov	x0, x21
  403324:	a94153f3 	ldp	x19, x20, [sp, #16]
  403328:	a9425bf5 	ldp	x21, x22, [sp, #32]
  40332c:	a94363f7 	ldp	x23, x24, [sp, #48]
  403330:	a8c47bfd 	ldp	x29, x30, [sp], #64
  403334:	d65f03c0 	ret
  403338:	b0000460 	adrp	x0, 490000 <.got.plt+0x18>
  40333c:	f9403c00 	ldr	x0, [x0, #120]
  403340:	d1000400 	sub	x0, x0, #0x1
  403344:	eb14001f 	cmp	x0, x20
  403348:	54fffd82 	b.cs	4032f8 <sysmalloc_mmap_fallback.constprop.0+0x98>  // b.hs, b.nlast
  40334c:	90000462 	adrp	x2, 48f000 <_IO_file_jumps+0xf8>
  403350:	f947d442 	ldr	x2, [x2, #4008]
  403354:	aa1403e1 	mov	x1, x20
  403358:	aa1503e0 	mov	x0, x21
  40335c:	f9400043 	ldr	x3, [x2]
  403360:	d1000462 	sub	x2, x3, #0x1
  403364:	ea150042 	ands	x2, x2, x21
  403368:	54000081 	b.ne	403378 <sysmalloc_mmap_fallback.constprop.0+0x118>  // b.any
  40336c:	528001c2 	mov	w2, #0xe                   	// #14
  403370:	94001cc4 	bl	40a680 <__madvise>
  403374:	17ffffe1 	b	4032f8 <sysmalloc_mmap_fallback.constprop.0+0x98>
  403378:	cb0303e3 	neg	x3, x3
  40337c:	8b140041 	add	x1, x2, x20
  403380:	8a150060 	and	x0, x3, x21
  403384:	17fffffa 	b	40336c <sysmalloc_mmap_fallback.constprop.0+0x10c>

0000000000403388 <sysmalloc_mmap.isra.0>:
  403388:	a9bb7bfd 	stp	x29, x30, [sp, #-80]!
  40338c:	910003fd 	mov	x29, sp
  403390:	a90153f3 	stp	x19, x20, [sp, #16]
  403394:	91001c33 	add	x19, x1, #0x7
  403398:	8b000273 	add	x19, x19, x0
  40339c:	cb0103e1 	neg	x1, x1
  4033a0:	a9025bf5 	stp	x21, x22, [sp, #32]
  4033a4:	8a010273 	and	x19, x19, x1
  4033a8:	eb13001f 	cmp	x0, x19
  4033ac:	540000e3 	b.cc	4033c8 <sysmalloc_mmap.isra.0+0x40>  // b.lo, b.ul, b.last
  4033b0:	92800016 	mov	x22, #0xffffffffffffffff    	// #-1
  4033b4:	aa1603e0 	mov	x0, x22
  4033b8:	a94153f3 	ldp	x19, x20, [sp, #16]
  4033bc:	a9425bf5 	ldp	x21, x22, [sp, #32]
  4033c0:	a8c57bfd 	ldp	x29, x30, [sp], #80
  4033c4:	d65f03c0 	ret
  4033c8:	2a0203f4 	mov	w20, w2
  4033cc:	aa1303e1 	mov	x1, x19
  4033d0:	52800443 	mov	w3, #0x22                  	// #34
  4033d4:	d2800005 	mov	x5, #0x0                   	// #0
  4033d8:	2a030043 	orr	w3, w2, w3
  4033dc:	12800004 	mov	w4, #0xffffffff            	// #-1
  4033e0:	52800062 	mov	w2, #0x3                   	// #3
  4033e4:	d2800000 	mov	x0, #0x0                   	// #0
  4033e8:	94001cae 	bl	40a6a0 <__mmap64>
  4033ec:	aa0003f5 	mov	x21, x0
  4033f0:	b100041f 	cmn	x0, #0x1
  4033f4:	54fffde0 	b.eq	4033b0 <sysmalloc_mmap.isra.0+0x28>  // b.none
  4033f8:	a90363f7 	stp	x23, x24, [sp, #48]
  4033fc:	f90023f9 	str	x25, [sp, #64]
  403400:	36900634 	tbz	w20, #18, 4034c4 <sysmalloc_mmap.isra.0+0x13c>
  403404:	aa1303e1 	mov	x1, x19
  403408:	aa1503e0 	mov	x0, x21
  40340c:	90000282 	adrp	x2, 453000 <__PRETTY_FUNCTION__.1+0x578>
  403410:	91020042 	add	x2, x2, #0x80
  403414:	94001d43 	bl	40a920 <__set_vma_name>
  403418:	910042b6 	add	x22, x21, #0x10
  40341c:	f2400ebf 	tst	x21, #0xf
  403420:	540007a1 	b.ne	403514 <sysmalloc_mmap.isra.0+0x18c>  // b.any
  403424:	b27f0260 	orr	x0, x19, #0x2
  403428:	a90002bf 	stp	xzr, x0, [x21]
  40342c:	b0000474 	adrp	x20, 490000 <.got.plt+0x18>
  403430:	91014298 	add	x24, x20, #0x50
  403434:	52800020 	mov	w0, #0x1                   	// #1
  403438:	9100f301 	add	x1, x24, #0x3c
  40343c:	91011319 	add	x25, x24, #0x44
  403440:	94011a84 	bl	449e50 <__aarch64_ldadd4_relax>
  403444:	11000415 	add	w21, w0, #0x1
  403448:	b9404717 	ldr	w23, [x24, #68]
  40344c:	6b1702bf 	cmp	w21, w23
  403450:	540000ed 	b.le	40346c <sysmalloc_mmap.isra.0+0xe4>
  403454:	aa1903e2 	mov	x2, x25
  403458:	2a1503e1 	mov	w1, w21
  40345c:	2a1703e0 	mov	w0, w23
  403460:	94011a40 	bl	449d60 <__aarch64_cas4_acq>
  403464:	6b17001f 	cmp	w0, w23
  403468:	54ffff01 	b.ne	403448 <sysmalloc_mmap.isra.0+0xc0>  // b.any
  40346c:	91014294 	add	x20, x20, #0x50
  403470:	aa1303e0 	mov	x0, x19
  403474:	91014281 	add	x1, x20, #0x50
  403478:	91016297 	add	x23, x20, #0x58
  40347c:	94011a8d 	bl	449eb0 <__aarch64_ldadd8_relax>
  403480:	8b130013 	add	x19, x0, x19
  403484:	f9402e95 	ldr	x21, [x20, #88]
  403488:	eb15027f 	cmp	x19, x21
  40348c:	540000e9 	b.ls	4034a8 <sysmalloc_mmap.isra.0+0x120>  // b.plast
  403490:	aa1703e2 	mov	x2, x23
  403494:	aa1303e1 	mov	x1, x19
  403498:	aa1503e0 	mov	x0, x21
  40349c:	94011a3d 	bl	449d90 <__aarch64_cas8_acq>
  4034a0:	eb15001f 	cmp	x0, x21
  4034a4:	54ffff01 	b.ne	403484 <sysmalloc_mmap.isra.0+0xfc>  // b.any
  4034a8:	f94023f9 	ldr	x25, [sp, #64]
  4034ac:	aa1603e0 	mov	x0, x22
  4034b0:	a94363f7 	ldp	x23, x24, [sp, #48]
  4034b4:	a94153f3 	ldp	x19, x20, [sp, #16]
  4034b8:	a9425bf5 	ldp	x21, x22, [sp, #32]
  4034bc:	a8c57bfd 	ldp	x29, x30, [sp], #80
  4034c0:	d65f03c0 	ret
  4034c4:	b0000460 	adrp	x0, 490000 <.got.plt+0x18>
  4034c8:	f9403c00 	ldr	x0, [x0, #120]
  4034cc:	d1000400 	sub	x0, x0, #0x1
  4034d0:	eb13001f 	cmp	x0, x19
  4034d4:	54fff982 	b.cs	403404 <sysmalloc_mmap.isra.0+0x7c>  // b.hs, b.nlast
  4034d8:	90000462 	adrp	x2, 48f000 <_IO_file_jumps+0xf8>
  4034dc:	f947d442 	ldr	x2, [x2, #4008]
  4034e0:	aa1303e1 	mov	x1, x19
  4034e4:	aa1503e0 	mov	x0, x21
  4034e8:	f9400043 	ldr	x3, [x2]
  4034ec:	d1000462 	sub	x2, x3, #0x1
  4034f0:	ea150042 	ands	x2, x2, x21
  4034f4:	54000081 	b.ne	403504 <sysmalloc_mmap.isra.0+0x17c>  // b.any
  4034f8:	528001c2 	mov	w2, #0xe                   	// #14
  4034fc:	94001c61 	bl	40a680 <__madvise>
  403500:	17ffffc1 	b	403404 <sysmalloc_mmap.isra.0+0x7c>
  403504:	cb0303e3 	neg	x3, x3
  403508:	8b020261 	add	x1, x19, x2
  40350c:	8a150060 	and	x0, x3, x21
  403510:	17fffffa 	b	4034f8 <sysmalloc_mmap.isra.0+0x170>
  403514:	90000283 	adrp	x3, 453000 <__PRETTY_FUNCTION__.1+0x578>
  403518:	f0000261 	adrp	x1, 452000 <__pthread_mutex_cond_lock_full+0x680>
  40351c:	90000280 	adrp	x0, 453000 <__PRETTY_FUNCTION__.1+0x578>
  403520:	913a6063 	add	x3, x3, #0xe98
  403524:	912ca021 	add	x1, x1, #0xb28
  403528:	91024000 	add	x0, x0, #0x90
  40352c:	52813202 	mov	w2, #0x990                 	// #2448
  403530:	940026cc 	bl	40d060 <__libc_assert_fail>
  403534:	d503201f 	nop
  403538:	d503201f 	nop
  40353c:	d503201f 	nop

0000000000403540 <systrim.constprop.0>:
  403540:	a9bc7bfd 	stp	x29, x30, [sp, #-64]!
  403544:	910003fd 	mov	x29, sp
  403548:	a9025bf5 	stp	x21, x22, [sp, #32]
  40354c:	b0000475 	adrp	x21, 490000 <.got.plt+0x18>
  403550:	9103c2a1 	add	x1, x21, #0xf0
  403554:	a90153f3 	stp	x19, x20, [sp, #16]
  403558:	f9403021 	ldr	x1, [x1, #96]
  40355c:	f9400434 	ldr	x20, [x1, #8]
  403560:	927df294 	and	x20, x20, #0xfffffffffffffff8
  403564:	d1008681 	sub	x1, x20, #0x21
  403568:	eb00003f 	cmp	x1, x0
  40356c:	54000169 	b.ls	403598 <systrim.constprop.0+0x58>  // b.plast
  403570:	b0000462 	adrp	x2, 490000 <.got.plt+0x18>
  403574:	cb000021 	sub	x1, x1, x0
  403578:	f9403c40 	ldr	x0, [x2, #120]
  40357c:	b5000080 	cbnz	x0, 40358c <systrim.constprop.0+0x4c>
  403580:	90000460 	adrp	x0, 48f000 <_IO_file_jumps+0xf8>
  403584:	f947d400 	ldr	x0, [x0, #4008]
  403588:	f9400000 	ldr	x0, [x0]
  40358c:	cb0003e0 	neg	x0, x0
  403590:	8a010013 	and	x19, x0, x1
  403594:	b50000d3 	cbnz	x19, 4035ac <systrim.constprop.0+0x6c>
  403598:	52800000 	mov	w0, #0x0                   	// #0
  40359c:	a94153f3 	ldp	x19, x20, [sp, #16]
  4035a0:	a9425bf5 	ldp	x21, x22, [sp, #32]
  4035a4:	a8c47bfd 	ldp	x29, x30, [sp], #64
  4035a8:	d65f03c0 	ret
  4035ac:	f9001bf7 	str	x23, [sp, #48]
  4035b0:	f0000497 	adrp	x23, 496000 <__pthread_keys+0x39d0>
  4035b4:	9118c2f7 	add	x23, x23, #0x630
  4035b8:	394042e0 	ldrb	w0, [x23, #16]
  4035bc:	37000140 	tbnz	w0, #0, 4035e4 <systrim.constprop.0+0xa4>
  4035c0:	9103c2b5 	add	x21, x21, #0xf0
  4035c4:	d2800000 	mov	x0, #0x0                   	// #0
  4035c8:	94001c66 	bl	40a760 <__sbrk>
  4035cc:	b100041f 	cmn	x0, #0x1
  4035d0:	9a9f1016 	csel	x22, x0, xzr, ne	// ne = any
  4035d4:	f94032a0 	ldr	x0, [x21, #96]
  4035d8:	8b140000 	add	x0, x0, x20
  4035dc:	eb0002df 	cmp	x22, x0
  4035e0:	54000060 	b.eq	4035ec <systrim.constprop.0+0xac>  // b.none
  4035e4:	f9401bf7 	ldr	x23, [sp, #48]
  4035e8:	17ffffec 	b	403598 <systrim.constprop.0+0x58>
  4035ec:	394042e0 	ldrb	w0, [x23, #16]
  4035f0:	3707ffa0 	tbnz	w0, #0, 4035e4 <systrim.constprop.0+0xa4>
  4035f4:	cb1303e0 	neg	x0, x19
  4035f8:	94001c5a 	bl	40a760 <__sbrk>
  4035fc:	394042e0 	ldrb	w0, [x23, #16]
  403600:	3707ff20 	tbnz	w0, #0, 4035e4 <systrim.constprop.0+0xa4>
  403604:	d2800000 	mov	x0, #0x0                   	// #0
  403608:	94001c56 	bl	40a760 <__sbrk>
  40360c:	d1000401 	sub	x1, x0, #0x1
  403610:	b1000c3f 	cmn	x1, #0x3
  403614:	54fffe88 	b.hi	4035e4 <systrim.constprop.0+0xa4>  // b.pmore
  403618:	eb0002d6 	subs	x22, x22, x0
  40361c:	54fffe40 	b.eq	4035e4 <systrim.constprop.0+0xa4>  // b.none
  403620:	f94032a3 	ldr	x3, [x21, #96]
  403624:	cb160281 	sub	x1, x20, x22
  403628:	f94446a2 	ldr	x2, [x21, #2184]
  40362c:	b2400021 	orr	x1, x1, #0x1
  403630:	f9401bf7 	ldr	x23, [sp, #48]
  403634:	cb160042 	sub	x2, x2, x22
  403638:	f90446a2 	str	x2, [x21, #2184]
  40363c:	52800020 	mov	w0, #0x1                   	// #1
  403640:	f9000461 	str	x1, [x3, #8]
  403644:	17ffffd6 	b	40359c <systrim.constprop.0+0x5c>

0000000000403648 <_int_free_maybe_consolidate.part.0>:
  403648:	a9b87bfd 	stp	x29, x30, [sp, #-128]!
  40364c:	91002001 	add	x1, x0, #0x8
  403650:	910003fd 	mov	x29, sp
  403654:	a90153f3 	stp	x19, x20, [sp, #16]
  403658:	aa0003f3 	mov	x19, x0
  40365c:	b9400021 	ldr	w1, [x1]
  403660:	350010a1 	cbnz	w1, 403874 <_int_free_maybe_consolidate.part.0+0x22c>
  403664:	b0000460 	adrp	x0, 490000 <.got.plt+0x18>
  403668:	9103c000 	add	x0, x0, #0xf0
  40366c:	eb00027f 	cmp	x19, x0
  403670:	540010c0 	b.eq	403888 <_int_free_maybe_consolidate.part.0+0x240>  // b.none
  403674:	b0000460 	adrp	x0, 490000 <.got.plt+0x18>
  403678:	91014001 	add	x1, x0, #0x50
  40367c:	a9025bf5 	stp	x21, x22, [sp, #32]
  403680:	a90363f7 	stp	x23, x24, [sp, #48]
  403684:	a9046bf9 	stp	x25, x26, [sp, #64]
  403688:	a90573fb 	stp	x27, x28, [sp, #80]
  40368c:	f940183a 	ldr	x26, [x1, #48]
  403690:	f9403260 	ldr	x0, [x19, #96]
  403694:	b4000a9a 	cbz	x26, 4037e4 <_int_free_maybe_consolidate.part.0+0x19c>
  403698:	cb1a0bf7 	neg	x23, x26, lsl #2
  40369c:	d37ef75a 	lsl	x26, x26, #2
  4036a0:	8a0002f7 	and	x23, x23, x0
  4036a4:	f94002fb 	ldr	x27, [x23]
  4036a8:	eb1b027f 	cmp	x19, x27
  4036ac:	54001dc1 	b.ne	403a64 <_int_free_maybe_consolidate.part.0+0x41c>  // b.any
  4036b0:	f9400421 	ldr	x1, [x1, #8]
  4036b4:	aa0003f8 	mov	x24, x0
  4036b8:	f90037e1 	str	x1, [sp, #104]
  4036bc:	9100c2e1 	add	x1, x23, #0x30
  4036c0:	eb01001f 	cmp	x0, x1
  4036c4:	540015e1 	b.ne	403980 <_int_free_maybe_consolidate.part.0+0x338>  // b.any
  4036c8:	f94037e0 	ldr	x0, [sp, #104]
  4036cc:	f0000485 	adrp	x5, 496000 <__pthread_keys+0x39d0>
  4036d0:	9118c0b5 	add	x21, x5, #0x630
  4036d4:	91008016 	add	x22, x0, #0x20
  4036d8:	14000010 	b	403718 <_int_free_maybe_consolidate.part.0+0xd0>
  4036dc:	f94012e0 	ldr	x0, [x23, #32]
  4036e0:	8b130301 	add	x1, x24, x19
  4036e4:	d1000400 	sub	x0, x0, #0x1
  4036e8:	ea00003f 	tst	x1, x0
  4036ec:	540018e1 	b.ne	403a08 <_int_free_maybe_consolidate.part.0+0x3c0>  // b.any
  4036f0:	f9400ae0 	ldr	x0, [x23, #16]
  4036f4:	8b0002e0 	add	x0, x23, x0
  4036f8:	eb00003f 	cmp	x1, x0
  4036fc:	54001461 	b.ne	403988 <_int_free_maybe_consolidate.part.0+0x340>  // b.any
  403700:	f9003378 	str	x24, [x27, #96]
  403704:	b2400273 	orr	x19, x19, #0x1
  403708:	9100c2e0 	add	x0, x23, #0x30
  40370c:	f9000713 	str	x19, [x24, #8]
  403710:	eb00031f 	cmp	x24, x0
  403714:	54000821 	b.ne	403818 <_int_free_maybe_consolidate.part.0+0x1d0>  // b.any
  403718:	aa1703e0 	mov	x0, x23
  40371c:	f94006f7 	ldr	x23, [x23, #8]
  403720:	f9400ae2 	ldr	x2, [x23, #16]
  403724:	d1004043 	sub	x3, x2, #0x10
  403728:	8b0302e4 	add	x4, x23, x3
  40372c:	92400c84 	and	x4, x4, #0xf
  403730:	cb040063 	sub	x3, x3, x4
  403734:	8b0302f4 	add	x20, x23, x3
  403738:	f9400681 	ldr	x1, [x20, #8]
  40373c:	f100043f 	cmp	x1, #0x1
  403740:	54001341 	b.ne	4039a8 <_int_free_maybe_consolidate.part.0+0x360>  // b.any
  403744:	f8636af9 	ldr	x25, [x23, x3]
  403748:	cb19029c 	sub	x28, x20, x25
  40374c:	cb1903f9 	neg	x25, x25
  403750:	f9400781 	ldr	x1, [x28, #8]
  403754:	927df033 	and	x19, x1, #0xfffffffffffffff8
  403758:	8b040273 	add	x19, x19, x4
  40375c:	91003e63 	add	x3, x19, #0xf
  403760:	91004273 	add	x19, x19, #0x10
  403764:	f100f87f 	cmp	x3, #0x3e
  403768:	54001308 	b.hi	4039c8 <_int_free_maybe_consolidate.part.0+0x380>  // b.pmore
  40376c:	37000061 	tbnz	w1, #0, 403778 <_int_free_maybe_consolidate.part.0+0x130>
  403770:	f8796a81 	ldr	x1, [x20, x25]
  403774:	8b010273 	add	x19, x19, x1
  403778:	f100027f 	cmp	x19, #0x0
  40377c:	fa5ac262 	ccmp	x19, x26, #0x2, gt
  403780:	54001342 	b.cs	4039e8 <_int_free_maybe_consolidate.part.0+0x3a0>  // b.hs, b.nlast
  403784:	f9401001 	ldr	x1, [x0, #32]
  403788:	cb020342 	sub	x2, x26, x2
  40378c:	8b130042 	add	x2, x2, x19
  403790:	8b0102c1 	add	x1, x22, x1
  403794:	eb01005f 	cmp	x2, x1
  403798:	540003c3 	b.cc	403810 <_int_free_maybe_consolidate.part.0+0x1c8>  // b.lo, b.ul, b.last
  40379c:	f9400804 	ldr	x4, [x0, #16]
  4037a0:	8b1a0001 	add	x1, x0, x26
  4037a4:	f9444762 	ldr	x2, [x27, #2184]
  4037a8:	f9400ea3 	ldr	x3, [x21, #24]
  4037ac:	cb040042 	sub	x2, x2, x4
  4037b0:	f9044762 	str	x2, [x27, #2184]
  4037b4:	eb01007f 	cmp	x3, x1
  4037b8:	54000280 	b.eq	403808 <_int_free_maybe_consolidate.part.0+0x1c0>  // b.none
  4037bc:	aa1a03e1 	mov	x1, x26
  4037c0:	94001be0 	bl	40a740 <__munmap>
  4037c4:	f9400780 	ldr	x0, [x28, #8]
  4037c8:	aa1c03f8 	mov	x24, x28
  4037cc:	3707f880 	tbnz	w0, #0, 4036dc <_int_free_maybe_consolidate.part.0+0x94>
  4037d0:	f8796a80 	ldr	x0, [x20, x25]
  4037d4:	cb000398 	sub	x24, x28, x0
  4037d8:	aa1803e0 	mov	x0, x24
  4037dc:	97fffb13 	bl	402428 <unlink_chunk.isra.0>
  4037e0:	17ffffbf 	b	4036dc <_int_free_maybe_consolidate.part.0+0x94>
  4037e4:	92669417 	and	x23, x0, #0xfffffffffc000000
  4037e8:	f94002fb 	ldr	x27, [x23]
  4037ec:	eb1b027f 	cmp	x19, x27
  4037f0:	540013a1 	b.ne	403a64 <_int_free_maybe_consolidate.part.0+0x41c>  // b.any
  4037f4:	f9400421 	ldr	x1, [x1, #8]
  4037f8:	aa0003f8 	mov	x24, x0
  4037fc:	d2a0801a 	mov	x26, #0x4000000             	// #67108864
  403800:	f90037e1 	str	x1, [sp, #104]
  403804:	17ffffae 	b	4036bc <_int_free_maybe_consolidate.part.0+0x74>
  403808:	f9000ebf 	str	xzr, [x21, #24]
  40380c:	17ffffec 	b	4037bc <_int_free_maybe_consolidate.part.0+0x174>
  403810:	f9400713 	ldr	x19, [x24, #8]
  403814:	aa0003f7 	mov	x23, x0
  403818:	b0000460 	adrp	x0, 490000 <.got.plt+0x18>
  40381c:	927df273 	and	x19, x19, #0xfffffffffffffff8
  403820:	b0000461 	adrp	x1, 490000 <.got.plt+0x18>
  403824:	91014036 	add	x22, x1, #0x50
  403828:	f9402800 	ldr	x0, [x0, #80]
  40382c:	eb00027f 	cmp	x19, x0
  403830:	54000143 	b.cc	403858 <_int_free_maybe_consolidate.part.0+0x210>  // b.lo, b.ul, b.last
  403834:	f94037e2 	ldr	x2, [sp, #104]
  403838:	f1008660 	subs	x0, x19, #0x21
  40383c:	fa425000 	ccmp	x0, x2, #0x0, pl	// pl = nfrst
  403840:	540000c9 	b.ls	403858 <_int_free_maybe_consolidate.part.0+0x210>  // b.plast
  403844:	f94012e1 	ldr	x1, [x23, #32]
  403848:	cb020000 	sub	x0, x0, x2
  40384c:	cb0103e1 	neg	x1, x1
  403850:	ea000035 	ands	x21, x1, x0
  403854:	54000321 	b.ne	4038b8 <_int_free_maybe_consolidate.part.0+0x270>  // b.any
  403858:	a9425bf5 	ldp	x21, x22, [sp, #32]
  40385c:	a94363f7 	ldp	x23, x24, [sp, #48]
  403860:	a9446bf9 	ldp	x25, x26, [sp, #64]
  403864:	a94573fb 	ldp	x27, x28, [sp, #80]
  403868:	a94153f3 	ldp	x19, x20, [sp, #16]
  40386c:	a8c87bfd 	ldp	x29, x30, [sp], #128
  403870:	d65f03c0 	ret
  403874:	97fffb23 	bl	402500 <malloc_consolidate>
  403878:	b0000460 	adrp	x0, 490000 <.got.plt+0x18>
  40387c:	9103c000 	add	x0, x0, #0xf0
  403880:	eb00027f 	cmp	x19, x0
  403884:	54ffef81 	b.ne	403674 <_int_free_maybe_consolidate.part.0+0x2c>  // b.any
  403888:	f9403262 	ldr	x2, [x19, #96]
  40388c:	b0000460 	adrp	x0, 490000 <.got.plt+0x18>
  403890:	91014003 	add	x3, x0, #0x50
  403894:	f9402801 	ldr	x1, [x0, #80]
  403898:	f9400440 	ldr	x0, [x2, #8]
  40389c:	927df000 	and	x0, x0, #0xfffffffffffffff8
  4038a0:	eb01001f 	cmp	x0, x1
  4038a4:	54fffe23 	b.cc	403868 <_int_free_maybe_consolidate.part.0+0x220>  // b.lo, b.ul, b.last
  4038a8:	f9400460 	ldr	x0, [x3, #8]
  4038ac:	a94153f3 	ldp	x19, x20, [sp, #16]
  4038b0:	a8c87bfd 	ldp	x29, x30, [sp], #128
  4038b4:	17ffff23 	b	403540 <systrim.constprop.0>
  4038b8:	f9400af9 	ldr	x25, [x23, #16]
  4038bc:	cb150339 	sub	x25, x25, x21
  4038c0:	f100bf3f 	cmp	x25, #0x2f
  4038c4:	54fffcad 	b.le	403858 <_int_free_maybe_consolidate.part.0+0x210>
  4038c8:	b94092c0 	ldr	w0, [x22, #144]
  4038cc:	7100001f 	cmp	w0, #0x0
  4038d0:	5400028b 	b.lt	403920 <_int_free_maybe_consolidate.part.0+0x2d8>  // b.tstop
  4038d4:	54000401 	b.ne	403954 <_int_free_maybe_consolidate.part.0+0x30c>  // b.any
  4038d8:	aa1503e1 	mov	x1, x21
  4038dc:	8b1902e0 	add	x0, x23, x25
  4038e0:	52800082 	mov	w2, #0x4                   	// #4
  4038e4:	94001b67 	bl	40a680 <__madvise>
  4038e8:	f9444760 	ldr	x0, [x27, #2184]
  4038ec:	f9000af9 	str	x25, [x23, #16]
  4038f0:	cb150273 	sub	x19, x19, x21
  4038f4:	cb150000 	sub	x0, x0, x21
  4038f8:	f9044760 	str	x0, [x27, #2184]
  4038fc:	b2400260 	orr	x0, x19, #0x1
  403900:	f9000700 	str	x0, [x24, #8]
  403904:	a9425bf5 	ldp	x21, x22, [sp, #32]
  403908:	a94363f7 	ldp	x23, x24, [sp, #48]
  40390c:	a9446bf9 	ldp	x25, x26, [sp, #64]
  403910:	a94573fb 	ldp	x27, x28, [sp, #80]
  403914:	a94153f3 	ldp	x19, x20, [sp, #16]
  403918:	a8c87bfd 	ldp	x29, x30, [sp], #128
  40391c:	d65f03c0 	ret
  403920:	90000460 	adrp	x0, 48f000 <_IO_file_jumps+0xf8>
  403924:	f946c000 	ldr	x0, [x0, #3456]
  403928:	b940001a 	ldr	w26, [x0]
  40392c:	b90092da 	str	w26, [x22, #144]
  403930:	3500013a 	cbnz	w26, 403954 <_int_free_maybe_consolidate.part.0+0x30c>
  403934:	90000280 	adrp	x0, 453000 <__PRETTY_FUNCTION__.1+0x578>
  403938:	52a00101 	mov	w1, #0x80000               	// #524288
  40393c:	9107c000 	add	x0, x0, #0x1f0
  403940:	94001988 	bl	409f60 <__open64_nocancel>
  403944:	2a0003fc 	mov	w28, w0
  403948:	36f80700 	tbz	w0, #31, 403a28 <_int_free_maybe_consolidate.part.0+0x3e0>
  40394c:	b94092c0 	ldr	w0, [x22, #144]
  403950:	34fffc40 	cbz	w0, 4038d8 <_int_free_maybe_consolidate.part.0+0x290>
  403954:	aa1503e1 	mov	x1, x21
  403958:	8b1902e0 	add	x0, x23, x25
  40395c:	d2800005 	mov	x5, #0x0                   	// #0
  403960:	12800004 	mov	w4, #0xffffffff            	// #-1
  403964:	52800643 	mov	w3, #0x32                  	// #50
  403968:	52800002 	mov	w2, #0x0                   	// #0
  40396c:	94001b4d 	bl	40a6a0 <__mmap64>
  403970:	b100041f 	cmn	x0, #0x1
  403974:	54fff720 	b.eq	403858 <_int_free_maybe_consolidate.part.0+0x210>  // b.none
  403978:	f9000ef9 	str	x25, [x23, #24]
  40397c:	17ffffdb 	b	4038e8 <_int_free_maybe_consolidate.part.0+0x2a0>
  403980:	f9400413 	ldr	x19, [x0, #8]
  403984:	17ffffa5 	b	403818 <_int_free_maybe_consolidate.part.0+0x1d0>
  403988:	90000283 	adrp	x3, 453000 <__PRETTY_FUNCTION__.1+0x578>
  40398c:	f0000261 	adrp	x1, 452000 <__pthread_mutex_cond_lock_full+0x680>
  403990:	90000280 	adrp	x0, 453000 <__PRETTY_FUNCTION__.1+0x578>
  403994:	9139a063 	add	x3, x3, #0xe68
  403998:	912dc021 	add	x1, x1, #0xb70
  40399c:	9106e000 	add	x0, x0, #0x1b8
  4039a0:	52804802 	mov	w2, #0x240                 	// #576
  4039a4:	940025af 	bl	40d060 <__libc_assert_fail>
  4039a8:	90000283 	adrp	x3, 453000 <__PRETTY_FUNCTION__.1+0x578>
  4039ac:	f0000261 	adrp	x1, 452000 <__pthread_mutex_cond_lock_full+0x680>
  4039b0:	90000280 	adrp	x0, 453000 <__PRETTY_FUNCTION__.1+0x578>
  4039b4:	9139a063 	add	x3, x3, #0xe68
  4039b8:	912dc021 	add	x1, x1, #0xb70
  4039bc:	9103a000 	add	x0, x0, #0xe8
  4039c0:	52804522 	mov	w2, #0x229                 	// #553
  4039c4:	940025a7 	bl	40d060 <__libc_assert_fail>
  4039c8:	90000283 	adrp	x3, 453000 <__PRETTY_FUNCTION__.1+0x578>
  4039cc:	f0000261 	adrp	x1, 452000 <__pthread_mutex_cond_lock_full+0x680>
  4039d0:	90000280 	adrp	x0, 453000 <__PRETTY_FUNCTION__.1+0x578>
  4039d4:	9139a063 	add	x3, x3, #0xe68
  4039d8:	912dc021 	add	x1, x1, #0xb70
  4039dc:	91046000 	add	x0, x0, #0x118
  4039e0:	52804582 	mov	w2, #0x22c                 	// #556
  4039e4:	9400259f 	bl	40d060 <__libc_assert_fail>
  4039e8:	90000283 	adrp	x3, 453000 <__PRETTY_FUNCTION__.1+0x578>
  4039ec:	f0000261 	adrp	x1, 452000 <__pthread_mutex_cond_lock_full+0x680>
  4039f0:	90000280 	adrp	x0, 453000 <__PRETTY_FUNCTION__.1+0x578>
  4039f4:	9139a063 	add	x3, x3, #0xe68
  4039f8:	912dc021 	add	x1, x1, #0xb70
  4039fc:	91052000 	add	x0, x0, #0x148
  403a00:	528045e2 	mov	w2, #0x22f                 	// #559
  403a04:	94002597 	bl	40d060 <__libc_assert_fail>
  403a08:	90000283 	adrp	x3, 453000 <__PRETTY_FUNCTION__.1+0x578>
  403a0c:	f0000261 	adrp	x1, 452000 <__pthread_mutex_cond_lock_full+0x680>
  403a10:	90000280 	adrp	x0, 453000 <__PRETTY_FUNCTION__.1+0x578>
  403a14:	9139a063 	add	x3, x3, #0xe68
  403a18:	912dc021 	add	x1, x1, #0xb70
  403a1c:	9105c000 	add	x0, x0, #0x170
  403a20:	528047c2 	mov	w2, #0x23e                 	// #574
  403a24:	9400258f 	bl	40d060 <__libc_assert_fail>
  403a28:	9101ffe1 	add	x1, sp, #0x7f
  403a2c:	d2800022 	mov	x2, #0x1                   	// #1
  403a30:	94001974 	bl	40a000 <__read_nocancel>
  403a34:	f100001f 	cmp	x0, #0x0
  403a38:	5400008d 	b.le	403a48 <_int_free_maybe_consolidate.part.0+0x400>
  403a3c:	3941ffe0 	ldrb	w0, [sp, #127]
  403a40:	7100c81f 	cmp	w0, #0x32
  403a44:	1a9f17fa 	cset	w26, eq	// eq = none
  403a48:	b0000460 	adrp	x0, 490000 <.got.plt+0x18>
  403a4c:	91014014 	add	x20, x0, #0x50
  403a50:	2a1c03e0 	mov	w0, w28
  403a54:	b900929a 	str	w26, [x20, #144]
  403a58:	94001932 	bl	409f20 <__close_nocancel>
  403a5c:	b9409280 	ldr	w0, [x20, #144]
  403a60:	17ffffbc 	b	403950 <_int_free_maybe_consolidate.part.0+0x308>
  403a64:	90000283 	adrp	x3, 453000 <__PRETTY_FUNCTION__.1+0x578>
  403a68:	f0000261 	adrp	x1, 452000 <__pthread_mutex_cond_lock_full+0x680>
  403a6c:	90000280 	adrp	x0, 453000 <__PRETTY_FUNCTION__.1+0x578>
  403a70:	9139e063 	add	x3, x3, #0xe78
  403a74:	912ca021 	add	x1, x1, #0xb28
  403a78:	91034000 	add	x0, x0, #0xd0
  403a7c:	52825742 	mov	w2, #0x12ba                	// #4794
  403a80:	94002578 	bl	40d060 <__libc_assert_fail>

0000000000403a84 <_int_free_merge_chunk>:
  403a84:	a9bc7bfd 	stp	x29, x30, [sp, #-64]!
  403a88:	910003fd 	mov	x29, sp
  403a8c:	a90153f3 	stp	x19, x20, [sp, #16]
  403a90:	aa0003f4 	mov	x20, x0
  403a94:	a9025bf5 	stp	x21, x22, [sp, #32]
  403a98:	8b020036 	add	x22, x1, x2
  403a9c:	f9403000 	ldr	x0, [x0, #96]
  403aa0:	f9001bf7 	str	x23, [sp, #48]
  403aa4:	eb01001f 	cmp	x0, x1
  403aa8:	54000640 	b.eq	403b70 <_int_free_merge_chunk+0xec>  // b.none
  403aac:	aa0103f3 	mov	x19, x1
  403ab0:	b9400681 	ldr	w1, [x20, #4]
  403ab4:	aa0203f5 	mov	x21, x2
  403ab8:	36080621 	tbz	w1, #1, 403b7c <_int_free_merge_chunk+0xf8>
  403abc:	f94006c0 	ldr	x0, [x22, #8]
  403ac0:	360006e0 	tbz	w0, #0, 403b9c <_int_free_merge_chunk+0x118>
  403ac4:	927df017 	and	x23, x0, #0xfffffffffffffff8
  403ac8:	f100401f 	cmp	x0, #0x10
  403acc:	540004c9 	b.ls	403b64 <_int_free_merge_chunk+0xe0>  // b.plast
  403ad0:	f9444680 	ldr	x0, [x20, #2184]
  403ad4:	eb17001f 	cmp	x0, x23
  403ad8:	54000469 	b.ls	403b64 <_int_free_merge_chunk+0xe0>  // b.plast
  403adc:	f0000480 	adrp	x0, 496000 <__pthread_keys+0x39d0>
  403ae0:	b9463001 	ldr	w1, [x0, #1584]
  403ae4:	35000621 	cbnz	w1, 403ba8 <_int_free_merge_chunk+0x124>
  403ae8:	f9400660 	ldr	x0, [x19, #8]
  403aec:	37000140 	tbnz	w0, #0, 403b14 <_int_free_merge_chunk+0x90>
  403af0:	f9400260 	ldr	x0, [x19]
  403af4:	cb000273 	sub	x19, x19, x0
  403af8:	8b0002b5 	add	x21, x21, x0
  403afc:	f9400661 	ldr	x1, [x19, #8]
  403b00:	927df021 	and	x1, x1, #0xfffffffffffffff8
  403b04:	eb00003f 	cmp	x1, x0
  403b08:	54000581 	b.ne	403bb8 <_int_free_merge_chunk+0x134>  // b.any
  403b0c:	aa1303e0 	mov	x0, x19
  403b10:	97fffa46 	bl	402428 <unlink_chunk.isra.0>
  403b14:	aa1303e1 	mov	x1, x19
  403b18:	aa1703e4 	mov	x4, x23
  403b1c:	aa1603e3 	mov	x3, x22
  403b20:	aa1503e2 	mov	x2, x21
  403b24:	aa1403e0 	mov	x0, x20
  403b28:	97fffada 	bl	402690 <_int_free_create_chunk>
  403b2c:	d29fffe1 	mov	x1, #0xffff                	// #65535
  403b30:	eb01001f 	cmp	x0, x1
  403b34:	540000c8 	b.hi	403b4c <_int_free_merge_chunk+0xc8>  // b.pmore
  403b38:	f9401bf7 	ldr	x23, [sp, #48]
  403b3c:	a94153f3 	ldp	x19, x20, [sp, #16]
  403b40:	a9425bf5 	ldp	x21, x22, [sp, #32]
  403b44:	a8c47bfd 	ldp	x29, x30, [sp], #64
  403b48:	d65f03c0 	ret
  403b4c:	f9401bf7 	ldr	x23, [sp, #48]
  403b50:	aa1403e0 	mov	x0, x20
  403b54:	a9425bf5 	ldp	x21, x22, [sp, #32]
  403b58:	a94153f3 	ldp	x19, x20, [sp, #16]
  403b5c:	a8c47bfd 	ldp	x29, x30, [sp], #64
  403b60:	17fffeba 	b	403648 <_int_free_maybe_consolidate.part.0>
  403b64:	90000280 	adrp	x0, 453000 <__PRETTY_FUNCTION__.1+0x578>
  403b68:	9109e000 	add	x0, x0, #0x278
  403b6c:	97fff861 	bl	401cf0 <malloc_printerr>
  403b70:	90000280 	adrp	x0, 453000 <__PRETTY_FUNCTION__.1+0x578>
  403b74:	91084000 	add	x0, x0, #0x210
  403b78:	97fff85e 	bl	401cf0 <malloc_printerr>
  403b7c:	f9400401 	ldr	x1, [x0, #8]
  403b80:	927df021 	and	x1, x1, #0xfffffffffffffff8
  403b84:	8b010000 	add	x0, x0, x1
  403b88:	eb0002df 	cmp	x22, x0
  403b8c:	54fff983 	b.cc	403abc <_int_free_merge_chunk+0x38>  // b.lo, b.ul, b.last
  403b90:	90000280 	adrp	x0, 453000 <__PRETTY_FUNCTION__.1+0x578>
  403b94:	9108c000 	add	x0, x0, #0x230
  403b98:	97fff856 	bl	401cf0 <malloc_printerr>
  403b9c:	90000280 	adrp	x0, 453000 <__PRETTY_FUNCTION__.1+0x578>
  403ba0:	91094000 	add	x0, x0, #0x250
  403ba4:	97fff853 	bl	401cf0 <malloc_printerr>
  403ba8:	d10042a2 	sub	x2, x21, #0x10
  403bac:	91004260 	add	x0, x19, #0x10
  403bb0:	97fff1bc 	bl	4002a0 <.plt+0x30>
  403bb4:	17ffffcd 	b	403ae8 <_int_free_merge_chunk+0x64>
  403bb8:	90000280 	adrp	x0, 453000 <__PRETTY_FUNCTION__.1+0x578>
  403bbc:	910a8000 	add	x0, x0, #0x2a0
  403bc0:	97fff84c 	bl	401cf0 <malloc_printerr>

0000000000403bc4 <_int_free>:
  403bc4:	a9bb7bfd 	stp	x29, x30, [sp, #-80]!
  403bc8:	910003fd 	mov	x29, sp
  403bcc:	a90153f3 	stp	x19, x20, [sp, #16]
  403bd0:	aa0103f3 	mov	x19, x1
  403bd4:	a9025bf5 	stp	x21, x22, [sp, #32]
  403bd8:	aa0003f6 	mov	x22, x0
  403bdc:	f9400420 	ldr	x0, [x1, #8]
  403be0:	a90363f7 	stp	x23, x24, [sp, #48]
  403be4:	927df014 	and	x20, x0, #0xfffffffffffffff8
  403be8:	cb1403e1 	neg	x1, x20
  403bec:	eb13003f 	cmp	x1, x19
  403bf0:	54001243 	b.cc	403e38 <_int_free+0x274>  // b.lo, b.ul, b.last
  403bf4:	f2400e7f 	tst	x19, #0xf
  403bf8:	54001201 	b.ne	403e38 <_int_free+0x274>  // b.any
  403bfc:	f1007e9f 	cmp	x20, #0x1f
  403c00:	54001249 	b.ls	403e48 <_int_free+0x284>  // b.plast
  403c04:	927d0004 	and	x4, x0, #0x8
  403c08:	37181200 	tbnz	w0, #3, 403e48 <_int_free+0x284>
  403c0c:	d53bd041 	mrs	x1, tpidr_el0
  403c10:	2a0203f7 	mov	w23, w2
  403c14:	91400021 	add	x1, x1, #0x0, lsl #12
  403c18:	9100a021 	add	x1, x1, #0x28
  403c1c:	f9400423 	ldr	x3, [x1, #8]
  403c20:	b4000b23 	cbz	x3, 403d84 <_int_free+0x1c0>
  403c24:	b0000462 	adrp	x2, 490000 <.got.plt+0x18>
  403c28:	91014042 	add	x2, x2, #0x50
  403c2c:	d1004681 	sub	x1, x20, #0x11
  403c30:	f0000495 	adrp	x21, 496000 <__pthread_keys+0x39d0>
  403c34:	f9403445 	ldr	x5, [x2, #104]
  403c38:	d344fc21 	lsr	x1, x1, #4
  403c3c:	eb0100bf 	cmp	x5, x1
  403c40:	54000189 	b.ls	403c70 <_int_free+0xac>  // b.plast
  403c44:	9118c2a5 	add	x5, x21, #0x630
  403c48:	91004266 	add	x6, x19, #0x10
  403c4c:	f9400e68 	ldr	x8, [x19, #24]
  403c50:	f94004a7 	ldr	x7, [x5, #8]
  403c54:	f9403c45 	ldr	x5, [x2, #120]
  403c58:	eb07011f 	cmp	x8, x7
  403c5c:	54001460 	b.eq	403ee8 <_int_free+0x324>  // b.none
  403c60:	d37ff824 	lsl	x4, x1, #1
  403c64:	78646862 	ldrh	w2, [x3, x4]
  403c68:	eb2240bf 	cmp	x5, w2, uxtw
  403c6c:	54000c68 	b.hi	403df8 <_int_free+0x234>  // b.pmore
  403c70:	9118c2a1 	add	x1, x21, #0x630
  403c74:	39401021 	ldrb	w1, [x1, #4]
  403c78:	eb21429f 	cmp	x20, w1, uxtw
  403c7c:	54000508 	b.hi	403d1c <_int_free+0x158>  // b.pmore
  403c80:	8b140278 	add	x24, x19, x20
  403c84:	f9400700 	ldr	x0, [x24, #8]
  403c88:	f100401f 	cmp	x0, #0x10
  403c8c:	54000e69 	b.ls	403e58 <_int_free+0x294>  // b.plast
  403c90:	f94446c1 	ldr	x1, [x22, #2184]
  403c94:	927df000 	and	x0, x0, #0xfffffffffffffff8
  403c98:	eb01001f 	cmp	x0, x1
  403c9c:	54000de2 	b.cs	403e58 <_int_free+0x294>  // b.hs, b.nlast
  403ca0:	b94632a1 	ldr	w1, [x21, #1584]
  403ca4:	91004278 	add	x24, x19, #0x10
  403ca8:	35001181 	cbnz	w1, 403ed8 <_int_free+0x314>
  403cac:	910022c0 	add	x0, x22, #0x8
  403cb0:	52800021 	mov	w1, #0x1                   	// #1
  403cb4:	b9000001 	str	w1, [x0]
  403cb8:	90000461 	adrp	x1, 48f000 <_IO_file_jumps+0xf8>
  403cbc:	f9464021 	ldr	x1, [x1, #3200]
  403cc0:	53047e95 	lsr	w21, w20, #4
  403cc4:	51000aa0 	sub	w0, w21, #0x2
  403cc8:	39400021 	ldrb	w1, [x1]
  403ccc:	8b000ec0 	add	x0, x22, x0, lsl #3
  403cd0:	f9400814 	ldr	x20, [x0, #16]
  403cd4:	34000601 	cbz	w1, 403d94 <_int_free+0x1d0>
  403cd8:	eb14027f 	cmp	x19, x20
  403cdc:	540007a0 	b.eq	403dd0 <_int_free+0x20c>  // b.none
  403ce0:	ca583298 	eor	x24, x20, x24, lsr #12
  403ce4:	f9000a78 	str	x24, [x19, #16]
  403ce8:	f9000813 	str	x19, [x0, #16]
  403cec:	f100029f 	cmp	x20, #0x0
  403cf0:	1a9f07e0 	cset	w0, ne	// ne = any
  403cf4:	6a0002ff 	tst	w23, w0
  403cf8:	54000080 	b.eq	403d08 <_int_free+0x144>  // b.none
  403cfc:	f9400680 	ldr	x0, [x20, #8]
  403d00:	6b4012bf 	cmp	w21, w0, lsr #4
  403d04:	540011a1 	b.ne	403f38 <_int_free+0x374>  // b.any
  403d08:	a94363f7 	ldp	x23, x24, [sp, #48]
  403d0c:	a94153f3 	ldp	x19, x20, [sp, #16]
  403d10:	a9425bf5 	ldp	x21, x22, [sp, #32]
  403d14:	a8c57bfd 	ldp	x29, x30, [sp], #80
  403d18:	d65f03c0 	ret
  403d1c:	37080620 	tbnz	w0, #1, 403de0 <_int_free+0x21c>
  403d20:	90000460 	adrp	x0, 48f000 <_IO_file_jumps+0xf8>
  403d24:	f9464000 	ldr	x0, [x0, #3200]
  403d28:	39400000 	ldrb	w0, [x0]
  403d2c:	35000760 	cbnz	w0, 403e18 <_int_free+0x254>
  403d30:	35000757 	cbnz	w23, 403e18 <_int_free+0x254>
  403d34:	aa1603e2 	mov	x2, x22
  403d38:	52800021 	mov	w1, #0x1                   	// #1
  403d3c:	52800000 	mov	w0, #0x0                   	// #0
  403d40:	94011808 	bl	449d60 <__aarch64_cas4_acq>
  403d44:	35001020 	cbnz	w0, 403f48 <_int_free+0x384>
  403d48:	aa1403e2 	mov	x2, x20
  403d4c:	aa1303e1 	mov	x1, x19
  403d50:	aa1603e0 	mov	x0, x22
  403d54:	97ffff4c 	bl	403a84 <_int_free_merge_chunk>
  403d58:	aa1603e1 	mov	x1, x22
  403d5c:	52800000 	mov	w0, #0x0                   	// #0
  403d60:	9401189c 	bl	449fd0 <__aarch64_swp4_rel>
  403d64:	7100041f 	cmp	w0, #0x1
  403d68:	54fffd0d 	b.le	403d08 <_int_free+0x144>
  403d6c:	a94363f7 	ldp	x23, x24, [sp, #48]
  403d70:	aa1603e0 	mov	x0, x22
  403d74:	a94153f3 	ldp	x19, x20, [sp, #16]
  403d78:	a9425bf5 	ldp	x21, x22, [sp, #32]
  403d7c:	a8c57bfd 	ldp	x29, x30, [sp], #80
  403d80:	17fff700 	b	401980 <__lll_lock_wake_private>
  403d84:	f0000495 	adrp	x21, 496000 <__pthread_keys+0x39d0>
  403d88:	9118c2a1 	add	x1, x21, #0x630
  403d8c:	39401021 	ldrb	w1, [x1, #4]
  403d90:	17ffffba 	b	403c78 <_int_free+0xb4>
  403d94:	d37d6ea0 	ubfiz	x0, x21, #3, #28
  403d98:	d34cff18 	lsr	x24, x24, #12
  403d9c:	8b0002d6 	add	x22, x22, x0
  403da0:	1400000a 	b	403dc8 <_int_free+0x204>
  403da4:	ca140300 	eor	x0, x24, x20
  403da8:	f9000a60 	str	x0, [x19, #16]
  403dac:	aa1603e2 	mov	x2, x22
  403db0:	aa1303e1 	mov	x1, x19
  403db4:	aa1403e0 	mov	x0, x20
  403db8:	9401180e 	bl	449df0 <__aarch64_cas8_rel>
  403dbc:	eb00029f 	cmp	x20, x0
  403dc0:	54fff960 	b.eq	403cec <_int_free+0x128>  // b.none
  403dc4:	aa0003f4 	mov	x20, x0
  403dc8:	eb13029f 	cmp	x20, x19
  403dcc:	54fffec1 	b.ne	403da4 <_int_free+0x1e0>  // b.any
  403dd0:	90000280 	adrp	x0, 453000 <__PRETTY_FUNCTION__.1+0x578>
  403dd4:	910f0000 	add	x0, x0, #0x3c0
  403dd8:	f90023f9 	str	x25, [sp, #64]
  403ddc:	97fff7c5 	bl	401cf0 <malloc_printerr>
  403de0:	a94363f7 	ldp	x23, x24, [sp, #48]
  403de4:	aa1303e0 	mov	x0, x19
  403de8:	a9425bf5 	ldp	x21, x22, [sp, #32]
  403dec:	a94153f3 	ldp	x19, x20, [sp, #16]
  403df0:	a8c57bfd 	ldp	x29, x30, [sp], #80
  403df4:	17fff815 	b	401e48 <munmap_chunk>
  403df8:	8b010c61 	add	x1, x3, x1, lsl #3
  403dfc:	11000442 	add	w2, w2, #0x1
  403e00:	f9404020 	ldr	x0, [x1, #128]
  403e04:	ca463000 	eor	x0, x0, x6, lsr #12
  403e08:	a9011e60 	stp	x0, x7, [x19, #16]
  403e0c:	f9004026 	str	x6, [x1, #128]
  403e10:	78246862 	strh	w2, [x3, x4]
  403e14:	17ffffbd 	b	403d08 <_int_free+0x144>
  403e18:	a94363f7 	ldp	x23, x24, [sp, #48]
  403e1c:	aa1403e2 	mov	x2, x20
  403e20:	aa1303e1 	mov	x1, x19
  403e24:	aa1603e0 	mov	x0, x22
  403e28:	a94153f3 	ldp	x19, x20, [sp, #16]
  403e2c:	a9425bf5 	ldp	x21, x22, [sp, #32]
  403e30:	a8c57bfd 	ldp	x29, x30, [sp], #80
  403e34:	17ffff14 	b	403a84 <_int_free_merge_chunk>
  403e38:	90000280 	adrp	x0, 453000 <__PRETTY_FUNCTION__.1+0x578>
  403e3c:	910b6000 	add	x0, x0, #0x2d8
  403e40:	f90023f9 	str	x25, [sp, #64]
  403e44:	97fff7ab 	bl	401cf0 <malloc_printerr>
  403e48:	90000280 	adrp	x0, 453000 <__PRETTY_FUNCTION__.1+0x578>
  403e4c:	910bc000 	add	x0, x0, #0x2f0
  403e50:	f90023f9 	str	x25, [sp, #64]
  403e54:	97fff7a7 	bl	401cf0 <malloc_printerr>
  403e58:	f90023f9 	str	x25, [sp, #64]
  403e5c:	35000337 	cbnz	w23, 403ec0 <_int_free+0x2fc>
  403e60:	aa1603e2 	mov	x2, x22
  403e64:	52800021 	mov	w1, #0x1                   	// #1
  403e68:	52800000 	mov	w0, #0x0                   	// #0
  403e6c:	940117bd 	bl	449d60 <__aarch64_cas4_acq>
  403e70:	350002e0 	cbnz	w0, 403ecc <_int_free+0x308>
  403e74:	f9400700 	ldr	x0, [x24, #8]
  403e78:	f100401f 	cmp	x0, #0x10
  403e7c:	54000189 	b.ls	403eac <_int_free+0x2e8>  // b.plast
  403e80:	f94446d9 	ldr	x25, [x22, #2184]
  403e84:	927df018 	and	x24, x0, #0xfffffffffffffff8
  403e88:	aa1603e1 	mov	x1, x22
  403e8c:	52800000 	mov	w0, #0x0                   	// #0
  403e90:	94011850 	bl	449fd0 <__aarch64_swp4_rel>
  403e94:	7100041f 	cmp	w0, #0x1
  403e98:	540006cc 	b.gt	403f70 <_int_free+0x3ac>
  403e9c:	eb19031f 	cmp	x24, x25
  403ea0:	54000102 	b.cs	403ec0 <_int_free+0x2fc>  // b.hs, b.nlast
  403ea4:	f94023f9 	ldr	x25, [sp, #64]
  403ea8:	17ffff7e 	b	403ca0 <_int_free+0xdc>
  403eac:	aa1603e1 	mov	x1, x22
  403eb0:	52800000 	mov	w0, #0x0                   	// #0
  403eb4:	94011847 	bl	449fd0 <__aarch64_swp4_rel>
  403eb8:	7100041f 	cmp	w0, #0x1
  403ebc:	5400054c 	b.gt	403f64 <_int_free+0x3a0>
  403ec0:	90000280 	adrp	x0, 453000 <__PRETTY_FUNCTION__.1+0x578>
  403ec4:	910e6000 	add	x0, x0, #0x398
  403ec8:	97fff78a 	bl	401cf0 <malloc_printerr>
  403ecc:	aa1603e0 	mov	x0, x22
  403ed0:	97fff66c 	bl	401880 <__lll_lock_wait_private>
  403ed4:	17ffffe8 	b	403e74 <_int_free+0x2b0>
  403ed8:	d1004282 	sub	x2, x20, #0x10
  403edc:	aa1803e0 	mov	x0, x24
  403ee0:	97fff0f0 	bl	4002a0 <.plt+0x30>
  403ee4:	17ffff72 	b	403cac <_int_free+0xe8>
  403ee8:	91004022 	add	x2, x1, #0x10
  403eec:	f8627862 	ldr	x2, [x3, x2, lsl #3]
  403ef0:	b5000142 	cbnz	x2, 403f18 <_int_free+0x354>
  403ef4:	17ffff5b 	b	403c60 <_int_free+0x9c>
  403ef8:	eb06005f 	cmp	x2, x6
  403efc:	54000480 	b.eq	403f8c <_int_free+0x3c8>  // b.none
  403f00:	f9400048 	ldr	x8, [x2]
  403f04:	d34cfc49 	lsr	x9, x2, #12
  403f08:	91000484 	add	x4, x4, #0x1
  403f0c:	ca080122 	eor	x2, x9, x8
  403f10:	eb08013f 	cmp	x9, x8
  403f14:	54ffea60 	b.eq	403c60 <_int_free+0x9c>  // b.none
  403f18:	eb05009f 	cmp	x4, x5
  403f1c:	54000300 	b.eq	403f7c <_int_free+0x3b8>  // b.none
  403f20:	f2400c5f 	tst	x2, #0xf
  403f24:	54fffea0 	b.eq	403ef8 <_int_free+0x334>  // b.none
  403f28:	90000280 	adrp	x0, 453000 <__PRETTY_FUNCTION__.1+0x578>
  403f2c:	910ce000 	add	x0, x0, #0x338
  403f30:	f90023f9 	str	x25, [sp, #64]
  403f34:	97fff76f 	bl	401cf0 <malloc_printerr>
  403f38:	90000280 	adrp	x0, 453000 <__PRETTY_FUNCTION__.1+0x578>
  403f3c:	910fa000 	add	x0, x0, #0x3e8
  403f40:	f90023f9 	str	x25, [sp, #64]
  403f44:	97fff76b 	bl	401cf0 <malloc_printerr>
  403f48:	aa1603e0 	mov	x0, x22
  403f4c:	97fff64d 	bl	401880 <__lll_lock_wait_private>
  403f50:	aa1403e2 	mov	x2, x20
  403f54:	aa1303e1 	mov	x1, x19
  403f58:	aa1603e0 	mov	x0, x22
  403f5c:	97fffeca 	bl	403a84 <_int_free_merge_chunk>
  403f60:	17ffff7e 	b	403d58 <_int_free+0x194>
  403f64:	aa1603e0 	mov	x0, x22
  403f68:	97fff686 	bl	401980 <__lll_lock_wake_private>
  403f6c:	17ffffd5 	b	403ec0 <_int_free+0x2fc>
  403f70:	aa1603e0 	mov	x0, x22
  403f74:	97fff683 	bl	401980 <__lll_lock_wake_private>
  403f78:	17ffffc9 	b	403e9c <_int_free+0x2d8>
  403f7c:	90000280 	adrp	x0, 453000 <__PRETTY_FUNCTION__.1+0x578>
  403f80:	910c2000 	add	x0, x0, #0x308
  403f84:	f90023f9 	str	x25, [sp, #64]
  403f88:	97fff75a 	bl	401cf0 <malloc_printerr>
  403f8c:	90000280 	adrp	x0, 453000 <__PRETTY_FUNCTION__.1+0x578>
  403f90:	910da000 	add	x0, x0, #0x368
  403f94:	f90023f9 	str	x25, [sp, #64]
  403f98:	97fff756 	bl	401cf0 <malloc_printerr>
  403f9c:	d503201f 	nop

0000000000403fa0 <sysmalloc>:
  403fa0:	a9b77bfd 	stp	x29, x30, [sp, #-144]!
  403fa4:	910003fd 	mov	x29, sp
  403fa8:	a90363f7 	stp	x23, x24, [sp, #48]
  403fac:	90000478 	adrp	x24, 48f000 <_IO_file_jumps+0xf8>
  403fb0:	f947d718 	ldr	x24, [x24, #4008]
  403fb4:	a90153f3 	stp	x19, x20, [sp, #16]
  403fb8:	aa0003f4 	mov	x20, x0
  403fbc:	a9046bf9 	stp	x25, x26, [sp, #64]
  403fc0:	aa0103f3 	mov	x19, x1
  403fc4:	a90573fb 	stp	x27, x28, [sp, #80]
  403fc8:	b000047b 	adrp	x27, 490000 <.got.plt+0x18>
  403fcc:	f9400319 	ldr	x25, [x24]
  403fd0:	b4000b21 	cbz	x1, 404134 <sysmalloc+0x194>
  403fd4:	91014360 	add	x0, x27, #0x50
  403fd8:	f9400801 	ldr	x1, [x0, #16]
  403fdc:	eb14003f 	cmp	x1, x20
  403fe0:	54000a49 	b.ls	404128 <sysmalloc+0x188>  // b.plast
  403fe4:	a9025bf5 	stp	x21, x22, [sp, #32]
  403fe8:	b9006bff 	str	wzr, [sp, #104]
  403fec:	aa1303e0 	mov	x0, x19
  403ff0:	91008286 	add	x6, x20, #0x20
  403ff4:	f8460c17 	ldr	x23, [x0, #96]!
  403ff8:	f94006e1 	ldr	x1, [x23, #8]
  403ffc:	f27df035 	ands	x21, x1, #0xfffffffffffffff8
  404000:	8b1502e7 	add	x7, x23, x21
  404004:	fa570000 	ccmp	x0, x23, #0x0, eq	// eq = none
  404008:	54000140 	b.eq	404030 <sysmalloc+0x90>  // b.none
  40400c:	f1007ebf 	cmp	x21, #0x1f
  404010:	540035e9 	b.ls	4046cc <sysmalloc+0x72c>  // b.plast
  404014:	360035c1 	tbz	w1, #0, 4046cc <sysmalloc+0x72c>
  404018:	d1000720 	sub	x0, x25, #0x1
  40401c:	ea0000ff 	tst	x7, x0
  404020:	54003561 	b.ne	4046cc <sysmalloc+0x72c>  // b.any
  404024:	91008286 	add	x6, x20, #0x20
  404028:	eb1500df 	cmp	x6, x21
  40402c:	54003609 	b.ls	4046ec <sysmalloc+0x74c>  // b.plast
  404030:	9000047c 	adrp	x28, 490000 <.got.plt+0x18>
  404034:	9103c380 	add	x0, x28, #0xf0
  404038:	eb00027f 	cmp	x19, x0
  40403c:	54000e60 	b.eq	404208 <sysmalloc+0x268>  // b.none
  404040:	91014360 	add	x0, x27, #0x50
  404044:	f9401800 	ldr	x0, [x0, #48]
  404048:	b4001ca0 	cbz	x0, 4043dc <sysmalloc+0x43c>
  40404c:	d37ef402 	lsl	x2, x0, #2
  404050:	cb000be1 	neg	x1, x0, lsl #2
  404054:	cb1500c0 	sub	x0, x6, x21
  404058:	8a0102fa 	and	x26, x23, x1
  40405c:	f100001f 	cmp	x0, #0x0
  404060:	540008ad 	b.le	404174 <sysmalloc+0x1d4>
  404064:	f9401341 	ldr	x1, [x26, #32]
  404068:	d1000418 	sub	x24, x0, #0x1
  40406c:	f9400b44 	ldr	x4, [x26, #16]
  404070:	8b010318 	add	x24, x24, x1
  404074:	cb0103e1 	neg	x1, x1
  404078:	8a010318 	and	x24, x24, x1
  40407c:	8b040318 	add	x24, x24, x4
  404080:	eb18005f 	cmp	x2, x24
  404084:	54000783 	b.cc	404174 <sysmalloc+0x1d4>  // b.lo, b.ul, b.last
  404088:	f9400f40 	ldr	x0, [x26, #24]
  40408c:	aa1703f6 	mov	x22, x23
  404090:	eb00031f 	cmp	x24, x0
  404094:	54001708 	b.hi	404374 <sysmalloc+0x3d4>  // b.pmore
  404098:	f9444661 	ldr	x1, [x19, #2184]
  40409c:	8b180340 	add	x0, x26, x24
  4040a0:	f9000b58 	str	x24, [x26, #16]
  4040a4:	cb170000 	sub	x0, x0, x23
  4040a8:	cb040021 	sub	x1, x1, x4
  4040ac:	b2400000 	orr	x0, x0, #0x1
  4040b0:	8b180021 	add	x1, x1, x24
  4040b4:	f9044661 	str	x1, [x19, #2184]
  4040b8:	f90006e0 	str	x0, [x23, #8]
  4040bc:	f9444a60 	ldr	x0, [x19, #2192]
  4040c0:	eb01001f 	cmp	x0, x1
  4040c4:	54000042 	b.cs	4040cc <sysmalloc+0x12c>  // b.hs, b.nlast
  4040c8:	f9044a61 	str	x1, [x19, #2192]
  4040cc:	f94006c0 	ldr	x0, [x22, #8]
  4040d0:	927df000 	and	x0, x0, #0xfffffffffffffff8
  4040d4:	eb06001f 	cmp	x0, x6
  4040d8:	54000883 	b.cc	4041e8 <sysmalloc+0x248>  // b.lo, b.ul, b.last
  4040dc:	9103c39c 	add	x28, x28, #0xf0
  4040e0:	8b1402c3 	add	x3, x22, x20
  4040e4:	eb1c027f 	cmp	x19, x28
  4040e8:	f9003263 	str	x3, [x19, #96]
  4040ec:	9a9f07e2 	cset	x2, ne	// ne = any
  4040f0:	cb140000 	sub	x0, x0, x20
  4040f4:	b2400001 	orr	x1, x0, #0x1
  4040f8:	910042c0 	add	x0, x22, #0x10
  4040fc:	aa020a82 	orr	x2, x20, x2, lsl #2
  404100:	b2400042 	orr	x2, x2, #0x1
  404104:	f90006c2 	str	x2, [x22, #8]
  404108:	f9000461 	str	x1, [x3, #8]
  40410c:	a9425bf5 	ldp	x21, x22, [sp, #32]
  404110:	a94153f3 	ldp	x19, x20, [sp, #16]
  404114:	a94363f7 	ldp	x23, x24, [sp, #48]
  404118:	a9446bf9 	ldp	x25, x26, [sp, #64]
  40411c:	a94573fb 	ldp	x27, x28, [sp, #80]
  404120:	a8c97bfd 	ldp	x29, x30, [sp], #144
  404124:	d65f03c0 	ret
  404128:	29478001 	ldp	w1, w0, [x0, #60]
  40412c:	6b00003f 	cmp	w1, w0
  404130:	54fff5aa 	b.ge	403fe4 <sysmalloc+0x44>  // b.tcont
  404134:	91014360 	add	x0, x27, #0x50
  404138:	f9401801 	ldr	x1, [x0, #48]
  40413c:	d1000422 	sub	x2, x1, #0x1
  404140:	eb02029f 	cmp	x20, x2
  404144:	54001528 	b.hi	4043e8 <sysmalloc+0x448>  // b.pmore
  404148:	aa1903e1 	mov	x1, x25
  40414c:	aa1403e0 	mov	x0, x20
  404150:	52800002 	mov	w2, #0x0                   	// #0
  404154:	97fffc8d 	bl	403388 <sysmalloc_mmap.isra.0>
  404158:	b100041f 	cmn	x0, #0x1
  40415c:	54fffda1 	b.ne	404110 <sysmalloc+0x170>  // b.any
  404160:	b4000513 	cbz	x19, 404200 <sysmalloc+0x260>
  404164:	52800020 	mov	w0, #0x1                   	// #1
  404168:	a9025bf5 	stp	x21, x22, [sp, #32]
  40416c:	b9006be0 	str	w0, [sp, #104]
  404170:	17ffff9f 	b	403fec <sysmalloc+0x4c>
  404174:	9101437b 	add	x27, x27, #0x50
  404178:	91014280 	add	x0, x20, #0x50
  40417c:	f9003be6 	str	x6, [sp, #112]
  404180:	f9400761 	ldr	x1, [x27, #8]
  404184:	97fffa97 	bl	402be0 <new_heap>
  404188:	f9403be6 	ldr	x6, [sp, #112]
  40418c:	b40013a0 	cbz	x0, 404400 <sysmalloc+0x460>
  404190:	d10082b5 	sub	x21, x21, #0x20
  404194:	9100c016 	add	x22, x0, #0x30
  404198:	f9400802 	ldr	x2, [x0, #16]
  40419c:	927ceeb5 	and	x21, x21, #0xfffffffffffffff0
  4041a0:	f9444661 	ldr	x1, [x19, #2184]
  4041a4:	910042a4 	add	x4, x21, #0x10
  4041a8:	8b0402e5 	add	x5, x23, x4
  4041ac:	a9006813 	stp	x19, x26, [x0]
  4041b0:	8b010041 	add	x1, x2, x1
  4041b4:	d100c042 	sub	x2, x2, #0x30
  4041b8:	f9003276 	str	x22, [x19, #96]
  4041bc:	f9044661 	str	x1, [x19, #2184]
  4041c0:	b2400042 	orr	x2, x2, #0x1
  4041c4:	f90006c2 	str	x2, [x22, #8]
  4041c8:	d2800022 	mov	x2, #0x1                   	// #1
  4041cc:	f90004a2 	str	x2, [x5, #8]
  4041d0:	f1007ebf 	cmp	x21, #0x1f
  4041d4:	54000e68 	b.hi	4043a0 <sysmalloc+0x400>  // b.pmore
  4041d8:	b2400080 	orr	x0, x4, #0x1
  4041dc:	f90006e0 	str	x0, [x23, #8]
  4041e0:	f8246ae4 	str	x4, [x23, x4]
  4041e4:	17ffffb6 	b	4040bc <sysmalloc+0x11c>
  4041e8:	d2a00000 	movz	x0, #0x0, lsl #16
  4041ec:	f2800780 	movk	x0, #0x3c
  4041f0:	d53bd041 	mrs	x1, tpidr_el0
  4041f4:	52800182 	mov	w2, #0xc                   	// #12
  4041f8:	b8206822 	str	w2, [x1, x0]
  4041fc:	a9425bf5 	ldp	x21, x22, [sp, #32]
  404200:	d2800000 	mov	x0, #0x0                   	// #0
  404204:	17ffffc3 	b	404110 <sysmalloc+0x170>
  404208:	91014361 	add	x1, x27, #0x50
  40420c:	b9400662 	ldr	w2, [x19, #4]
  404210:	f9400420 	ldr	x0, [x1, #8]
  404214:	f27f005f 	tst	x2, #0x2
  404218:	f9401421 	ldr	x1, [x1, #40]
  40421c:	91008000 	add	x0, x0, #0x20
  404220:	8b140000 	add	x0, x0, x20
  404224:	cb150002 	sub	x2, x0, x21
  404228:	9a800040 	csel	x0, x2, x0, eq	// eq = none
  40422c:	b5001de1 	cbnz	x1, 4045e8 <sysmalloc+0x648>
  404230:	f9400301 	ldr	x1, [x24]
  404234:	d100043a 	sub	x26, x1, #0x1
  404238:	cb0103e1 	neg	x1, x1
  40423c:	8b00035a 	add	x26, x26, x0
  404240:	8a01035a 	and	x26, x26, x1
  404244:	f90047fa 	str	x26, [sp, #136]
  404248:	f100035f 	cmp	x26, #0x0
  40424c:	54000e4c 	b.gt	404414 <sysmalloc+0x474>
  404250:	91014360 	add	x0, x27, #0x50
  404254:	f9401804 	ldr	x4, [x0, #48]
  404258:	b50011a4 	cbnz	x4, 40448c <sysmalloc+0x4ec>
  40425c:	910223fa 	add	x26, sp, #0x88
  404260:	aa1a03e0 	mov	x0, x26
  404264:	aa1903e4 	mov	x4, x25
  404268:	aa1503e2 	mov	x2, x21
  40426c:	aa1403e1 	mov	x1, x20
  404270:	52800005 	mov	w5, #0x0                   	// #0
  404274:	d2a00203 	mov	x3, #0x100000              	// #1048576
  404278:	a9069be7 	stp	x7, x6, [sp, #104]
  40427c:	97fffbf9 	bl	403260 <sysmalloc_mmap_fallback.constprop.0>
  404280:	aa0003f6 	mov	x22, x0
  404284:	a9469be7 	ldp	x7, x6, [sp, #104]
  404288:	b100041f 	cmn	x0, #0x1
  40428c:	540012c0 	b.eq	4044e4 <sysmalloc+0x544>  // b.none
  404290:	f94047fa 	ldr	x26, [sp, #136]
  404294:	8b1a02c3 	add	x3, x22, x26
  404298:	b4001276 	cbz	x22, 4044e4 <sysmalloc+0x544>
  40429c:	91014360 	add	x0, x27, #0x50
  4042a0:	f9403001 	ldr	x1, [x0, #96]
  4042a4:	b4001821 	cbz	x1, 4045a8 <sysmalloc+0x608>
  4042a8:	9103c380 	add	x0, x28, #0xf0
  4042ac:	52800004 	mov	w4, #0x0                   	// #0
  4042b0:	f9444401 	ldr	x1, [x0, #2184]
  4042b4:	8b010341 	add	x1, x26, x1
  4042b8:	f9044401 	str	x1, [x0, #2184]
  4042bc:	9103c382 	add	x2, x28, #0xf0
  4042c0:	b9400440 	ldr	w0, [x2, #4]
  4042c4:	37081180 	tbnz	w0, #1, 4044f4 <sysmalloc+0x554>
  4042c8:	f10002bf 	cmp	x21, #0x0
  4042cc:	fa5610e0 	ccmp	x7, x22, #0x0, ne	// ne = any
  4042d0:	54002348 	b.hi	404738 <sysmalloc+0x798>  // b.pmore
  4042d4:	b4000095 	cbz	x21, 4042e4 <sysmalloc+0x344>
  4042d8:	cb0702c0 	sub	x0, x22, x7
  4042dc:	8b010000 	add	x0, x0, x1
  4042e0:	f9044440 	str	x0, [x2, #2184]
  4042e4:	f2400ec1 	ands	x1, x22, #0xf
  4042e8:	54001aa0 	b.eq	40463c <sysmalloc+0x69c>  // b.none
  4042ec:	d2800200 	mov	x0, #0x10                  	// #16
  4042f0:	cb010000 	sub	x0, x0, x1
  4042f4:	8b0002c1 	add	x1, x22, x0
  4042f8:	8b150000 	add	x0, x0, x21
  4042fc:	f90037e1 	str	x1, [sp, #104]
  404300:	8b00035a 	add	x26, x26, x0
  404304:	d1000721 	sub	x1, x25, #0x1
  404308:	8b1a02da 	add	x26, x22, x26
  40430c:	cb1903f9 	neg	x25, x25
  404310:	8b1a0021 	add	x1, x1, x26
  404314:	cb1a0000 	sub	x0, x0, x26
  404318:	8a190021 	and	x1, x1, x25
  40431c:	8b000039 	add	x25, x1, x0
  404320:	aa1903fa 	mov	x26, x25
  404324:	b7f81fb9 	tbnz	x25, #63, 404718 <sysmalloc+0x778>
  404328:	d0000496 	adrp	x22, 496000 <__pthread_keys+0x39d0>
  40432c:	9118c2d6 	add	x22, x22, #0x630
  404330:	394042c0 	ldrb	w0, [x22, #16]
  404334:	37000d80 	tbnz	w0, #0, 4044e4 <sysmalloc+0x544>
  404338:	aa1903e0 	mov	x0, x25
  40433c:	f9003be6 	str	x6, [sp, #112]
  404340:	94001908 	bl	40a760 <__sbrk>
  404344:	aa0003e3 	mov	x3, x0
  404348:	d1000400 	sub	x0, x0, #0x1
  40434c:	f9403be6 	ldr	x6, [sp, #112]
  404350:	b1000c1f 	cmn	x0, #0x3
  404354:	54000b68 	b.hi	4044c0 <sysmalloc+0x520>  // b.pmore
  404358:	9101437b 	add	x27, x27, #0x50
  40435c:	f9401760 	ldr	x0, [x27, #40]
  404360:	d1000400 	sub	x0, x0, #0x1
  404364:	eb00033f 	cmp	x25, x0
  404368:	54001088 	b.hi	404578 <sysmalloc+0x5d8>  // b.pmore
  40436c:	f94037f6 	ldr	x22, [sp, #104]
  404370:	14000065 	b	404504 <sysmalloc+0x564>
  404374:	cb000301 	sub	x1, x24, x0
  404378:	52800062 	mov	w2, #0x3                   	// #3
  40437c:	8b000340 	add	x0, x26, x0
  404380:	a90713e6 	stp	x6, x4, [sp, #112]
  404384:	940018df 	bl	40a700 <__mprotect>
  404388:	f9403be6 	ldr	x6, [sp, #112]
  40438c:	35ffef40 	cbnz	w0, 404174 <sysmalloc+0x1d4>
  404390:	f9403276 	ldr	x22, [x19, #96]
  404394:	f9000f58 	str	x24, [x26, #24]
  404398:	f9403fe4 	ldr	x4, [sp, #120]
  40439c:	17ffff3f 	b	404098 <sysmalloc+0xf8>
  4043a0:	b00002a0 	adrp	x0, 459000 <__PRETTY_FUNCTION__.2+0x38>
  4043a4:	d28000a1 	mov	x1, #0x5                   	// #5
  4043a8:	f90037e6 	str	x6, [sp, #104]
  4043ac:	3dc0001f 	ldr	q31, [x0]
  4043b0:	8b1502e0 	add	x0, x23, x21
  4043b4:	aa0102b5 	orr	x21, x21, x1
  4043b8:	aa1703e1 	mov	x1, x23
  4043bc:	3c80801f 	stur	q31, [x0, #8]
  4043c0:	aa1303e0 	mov	x0, x19
  4043c4:	f90006f5 	str	x21, [x23, #8]
  4043c8:	97fffdff 	bl	403bc4 <_int_free>
  4043cc:	f9403276 	ldr	x22, [x19, #96]
  4043d0:	f94037e6 	ldr	x6, [sp, #104]
  4043d4:	f9444661 	ldr	x1, [x19, #2184]
  4043d8:	17ffff39 	b	4040bc <sysmalloc+0x11c>
  4043dc:	b26697e1 	mov	x1, #0xfffffffffc000000    	// #-67108864
  4043e0:	d2a08002 	mov	x2, #0x4000000             	// #67108864
  4043e4:	17ffff1c 	b	404054 <sysmalloc+0xb4>
  4043e8:	b9403802 	ldr	w2, [x0, #56]
  4043ec:	aa1403e0 	mov	x0, x20
  4043f0:	97fffbe6 	bl	403388 <sysmalloc_mmap.isra.0>
  4043f4:	b100041f 	cmn	x0, #0x1
  4043f8:	54ffe8c1 	b.ne	404110 <sysmalloc+0x170>  // b.any
  4043fc:	17ffff53 	b	404148 <sysmalloc+0x1a8>
  404400:	b9406be0 	ldr	w0, [sp, #104]
  404404:	34000e00 	cbz	w0, 4045c4 <sysmalloc+0x624>
  404408:	f9403276 	ldr	x22, [x19, #96]
  40440c:	f9444661 	ldr	x1, [x19, #2184]
  404410:	17ffff2b 	b	4040bc <sysmalloc+0x11c>
  404414:	d0000480 	adrp	x0, 496000 <__pthread_keys+0x39d0>
  404418:	39590000 	ldrb	w0, [x0, #1600]
  40441c:	3707f1a0 	tbnz	w0, #0, 404250 <sysmalloc+0x2b0>
  404420:	aa1a03e0 	mov	x0, x26
  404424:	a9069be7 	stp	x7, x6, [sp, #104]
  404428:	940018ce 	bl	40a760 <__sbrk>
  40442c:	aa0003f6 	mov	x22, x0
  404430:	d1000400 	sub	x0, x0, #0x1
  404434:	a9469be7 	ldp	x7, x6, [sp, #104]
  404438:	b1000c1f 	cmn	x0, #0x3
  40443c:	54fff0a8 	b.hi	404250 <sysmalloc+0x2b0>  // b.pmore
  404440:	91014360 	add	x0, x27, #0x50
  404444:	f9401400 	ldr	x0, [x0, #40]
  404448:	d1000400 	sub	x0, x0, #0x1
  40444c:	eb00035f 	cmp	x26, x0
  404450:	54000e08 	b.hi	404610 <sysmalloc+0x670>  // b.pmore
  404454:	91014360 	add	x0, x27, #0x50
  404458:	f9403001 	ldr	x1, [x0, #96]
  40445c:	b4000fe1 	cbz	x1, 404658 <sysmalloc+0x6b8>
  404460:	9103c380 	add	x0, x28, #0xf0
  404464:	f9444401 	ldr	x1, [x0, #2184]
  404468:	8b010341 	add	x1, x26, x1
  40446c:	f9044401 	str	x1, [x0, #2184]
  404470:	eb1600ff 	cmp	x7, x22
  404474:	540014c1 	b.ne	40470c <sysmalloc+0x76c>  // b.any
  404478:	8b1a02ba 	add	x26, x21, x26
  40447c:	f9403016 	ldr	x22, [x0, #96]
  404480:	b240035a 	orr	x26, x26, #0x1
  404484:	f90006fa 	str	x26, [x23, #8]
  404488:	17ffff0d 	b	4040bc <sysmalloc+0x11c>
  40448c:	b9403805 	ldr	w5, [x0, #56]
  404490:	910223fa 	add	x26, sp, #0x88
  404494:	aa0403e3 	mov	x3, x4
  404498:	aa1503e2 	mov	x2, x21
  40449c:	aa1403e1 	mov	x1, x20
  4044a0:	aa1a03e0 	mov	x0, x26
  4044a4:	a9069be7 	stp	x7, x6, [sp, #104]
  4044a8:	97fffb6e 	bl	403260 <sysmalloc_mmap_fallback.constprop.0>
  4044ac:	a9469be7 	ldp	x7, x6, [sp, #104]
  4044b0:	aa0003f6 	mov	x22, x0
  4044b4:	b100041f 	cmn	x0, #0x1
  4044b8:	54ffeec1 	b.ne	404290 <sysmalloc+0x2f0>  // b.any
  4044bc:	17ffff69 	b	404260 <sysmalloc+0x2c0>
  4044c0:	394042c0 	ldrb	w0, [x22, #16]
  4044c4:	37000100 	tbnz	w0, #0, 4044e4 <sysmalloc+0x544>
  4044c8:	d2800000 	mov	x0, #0x0                   	// #0
  4044cc:	f9003be6 	str	x6, [sp, #112]
  4044d0:	940018a4 	bl	40a760 <__sbrk>
  4044d4:	aa0003e3 	mov	x3, x0
  4044d8:	f9403be6 	ldr	x6, [sp, #112]
  4044dc:	b100041f 	cmn	x0, #0x1
  4044e0:	54000c01 	b.ne	404660 <sysmalloc+0x6c0>  // b.any
  4044e4:	9103c380 	add	x0, x28, #0xf0
  4044e8:	f9403016 	ldr	x22, [x0, #96]
  4044ec:	f9444401 	ldr	x1, [x0, #2184]
  4044f0:	17fffef3 	b	4040bc <sysmalloc+0x11c>
  4044f4:	f2400ed9 	ands	x25, x22, #0xf
  4044f8:	54001261 	b.ne	404744 <sysmalloc+0x7a4>  // b.any
  4044fc:	d280001a 	mov	x26, #0x0                   	// #0
  404500:	35000ba4 	cbnz	w4, 404674 <sysmalloc+0x6d4>
  404504:	9103c398 	add	x24, x28, #0xf0
  404508:	cb160061 	sub	x1, x3, x22
  40450c:	8b1a0021 	add	x1, x1, x26
  404510:	b2400021 	orr	x1, x1, #0x1
  404514:	f9444700 	ldr	x0, [x24, #2184]
  404518:	f9003316 	str	x22, [x24, #96]
  40451c:	f90006c1 	str	x1, [x22, #8]
  404520:	8b000321 	add	x1, x25, x0
  404524:	f9044701 	str	x1, [x24, #2184]
  404528:	b4ffdcb5 	cbz	x21, 4040bc <sysmalloc+0x11c>
  40452c:	d10082a0 	sub	x0, x21, #0x20
  404530:	d2800223 	mov	x3, #0x11                  	// #17
  404534:	927cec00 	and	x0, x0, #0xfffffffffffffff0
  404538:	8b0002e2 	add	x2, x23, x0
  40453c:	b2400004 	orr	x4, x0, #0x1
  404540:	f90006e4 	str	x4, [x23, #8]
  404544:	f9000443 	str	x3, [x2, #8]
  404548:	f9000c43 	str	x3, [x2, #24]
  40454c:	f1007c1f 	cmp	x0, #0x1f
  404550:	54ffdb69 	b.ls	4040bc <sysmalloc+0x11c>  // b.plast
  404554:	aa1703e1 	mov	x1, x23
  404558:	aa1803e0 	mov	x0, x24
  40455c:	52800022 	mov	w2, #0x1                   	// #1
  404560:	f90037e6 	str	x6, [sp, #104]
  404564:	97fffd98 	bl	403bc4 <_int_free>
  404568:	f9403316 	ldr	x22, [x24, #96]
  40456c:	f94037e6 	ldr	x6, [sp, #104]
  404570:	f9444701 	ldr	x1, [x24, #2184]
  404574:	17fffed2 	b	4040bc <sysmalloc+0x11c>
  404578:	f9400304 	ldr	x4, [x24]
  40457c:	aa1903e1 	mov	x1, x25
  404580:	aa0303e0 	mov	x0, x3
  404584:	d1000482 	sub	x2, x4, #0x1
  404588:	ea030042 	ands	x2, x2, x3
  40458c:	54000981 	b.ne	4046bc <sysmalloc+0x71c>  // b.any
  404590:	528001c2 	mov	w2, #0xe                   	// #14
  404594:	a9071be3 	stp	x3, x6, [sp, #112]
  404598:	9400183a 	bl	40a680 <__madvise>
  40459c:	f94037f6 	ldr	x22, [sp, #104]
  4045a0:	a9471be3 	ldp	x3, x6, [sp, #112]
  4045a4:	17ffffd8 	b	404504 <sysmalloc+0x564>
  4045a8:	9103c382 	add	x2, x28, #0xf0
  4045ac:	52800004 	mov	w4, #0x0                   	// #0
  4045b0:	f9003016 	str	x22, [x0, #96]
  4045b4:	f9444441 	ldr	x1, [x2, #2184]
  4045b8:	8b010341 	add	x1, x26, x1
  4045bc:	f9044441 	str	x1, [x2, #2184]
  4045c0:	17ffff3f 	b	4042bc <sysmalloc+0x31c>
  4045c4:	aa1903e1 	mov	x1, x25
  4045c8:	aa1403e0 	mov	x0, x20
  4045cc:	52800002 	mov	w2, #0x0                   	// #0
  4045d0:	f90037e6 	str	x6, [sp, #104]
  4045d4:	97fffb6d 	bl	403388 <sysmalloc_mmap.isra.0>
  4045d8:	b100041f 	cmn	x0, #0x1
  4045dc:	54000360 	b.eq	404648 <sysmalloc+0x6a8>  // b.none
  4045e0:	a9425bf5 	ldp	x21, x22, [sp, #32]
  4045e4:	17fffecb 	b	404110 <sysmalloc+0x170>
  4045e8:	f0000442 	adrp	x2, 48f000 <_IO_file_jumps+0xf8>
  4045ec:	f9479042 	ldr	x2, [x2, #3872]
  4045f0:	d1000423 	sub	x3, x1, #0x1
  4045f4:	cb0103e1 	neg	x1, x1
  4045f8:	f940005a 	ldr	x26, [x2]
  4045fc:	8b000340 	add	x0, x26, x0
  404600:	8b030000 	add	x0, x0, x3
  404604:	8a010000 	and	x0, x0, x1
  404608:	cb1a001a 	sub	x26, x0, x26
  40460c:	17ffff0e 	b	404244 <sysmalloc+0x2a4>
  404610:	f9400303 	ldr	x3, [x24]
  404614:	aa1a03e1 	mov	x1, x26
  404618:	aa1603e0 	mov	x0, x22
  40461c:	d1000462 	sub	x2, x3, #0x1
  404620:	ea160042 	ands	x2, x2, x22
  404624:	54000441 	b.ne	4046ac <sysmalloc+0x70c>  // b.any
  404628:	528001c2 	mov	w2, #0xe                   	// #14
  40462c:	a9069be7 	stp	x7, x6, [sp, #104]
  404630:	94001814 	bl	40a680 <__madvise>
  404634:	a9469be7 	ldp	x7, x6, [sp, #104]
  404638:	17ffff87 	b	404454 <sysmalloc+0x4b4>
  40463c:	aa1503e0 	mov	x0, x21
  404640:	f90037f6 	str	x22, [sp, #104]
  404644:	17ffff2f 	b	404300 <sysmalloc+0x360>
  404648:	f9403276 	ldr	x22, [x19, #96]
  40464c:	f94037e6 	ldr	x6, [sp, #104]
  404650:	f9444661 	ldr	x1, [x19, #2184]
  404654:	17fffe9a 	b	4040bc <sysmalloc+0x11c>
  404658:	f9003016 	str	x22, [x0, #96]
  40465c:	17ffff81 	b	404460 <sysmalloc+0x4c0>
  404660:	b4fff423 	cbz	x3, 4044e4 <sysmalloc+0x544>
  404664:	f94037f6 	ldr	x22, [sp, #104]
  404668:	d2800019 	mov	x25, #0x0                   	// #0
  40466c:	d280001a 	mov	x26, #0x0                   	// #0
  404670:	17ffffa5 	b	404504 <sysmalloc+0x564>
  404674:	d0000480 	adrp	x0, 496000 <__pthread_keys+0x39d0>
  404678:	39590000 	ldrb	w0, [x0, #1600]
  40467c:	37000120 	tbnz	w0, #0, 4046a0 <sysmalloc+0x700>
  404680:	d2800000 	mov	x0, #0x0                   	// #0
  404684:	a9071be2 	stp	x2, x6, [sp, #112]
  404688:	94001836 	bl	40a760 <__sbrk>
  40468c:	f90037f6 	str	x22, [sp, #104]
  404690:	aa0003e3 	mov	x3, x0
  404694:	a9471be2 	ldp	x2, x6, [sp, #112]
  404698:	b100041f 	cmn	x0, #0x1
  40469c:	54fffe21 	b.ne	404660 <sysmalloc+0x6c0>  // b.any
  4046a0:	f9403056 	ldr	x22, [x2, #96]
  4046a4:	f9444441 	ldr	x1, [x2, #2184]
  4046a8:	17fffe85 	b	4040bc <sysmalloc+0x11c>
  4046ac:	cb0303e3 	neg	x3, x3
  4046b0:	8b020341 	add	x1, x26, x2
  4046b4:	8a160060 	and	x0, x3, x22
  4046b8:	17ffffdc 	b	404628 <sysmalloc+0x688>
  4046bc:	cb0403e4 	neg	x4, x4
  4046c0:	8b020321 	add	x1, x25, x2
  4046c4:	8a030080 	and	x0, x4, x3
  4046c8:	17ffffb2 	b	404590 <sysmalloc+0x5f0>
  4046cc:	f0000263 	adrp	x3, 453000 <__PRETTY_FUNCTION__.1+0x578>
  4046d0:	d0000261 	adrp	x1, 452000 <__pthread_mutex_cond_lock_full+0x680>
  4046d4:	f0000260 	adrp	x0, 453000 <__PRETTY_FUNCTION__.1+0x578>
  4046d8:	913aa063 	add	x3, x3, #0xea8
  4046dc:	912ca021 	add	x1, x1, #0xb28
  4046e0:	91102000 	add	x0, x0, #0x408
  4046e4:	528144e2 	mov	w2, #0xa27                 	// #2599
  4046e8:	9400225e 	bl	40d060 <__libc_assert_fail>
  4046ec:	f0000263 	adrp	x3, 453000 <__PRETTY_FUNCTION__.1+0x578>
  4046f0:	d0000261 	adrp	x1, 452000 <__pthread_mutex_cond_lock_full+0x680>
  4046f4:	f0000260 	adrp	x0, 453000 <__PRETTY_FUNCTION__.1+0x578>
  4046f8:	913aa063 	add	x3, x3, #0xea8
  4046fc:	912ca021 	add	x1, x1, #0xb28
  404700:	9112c000 	add	x0, x0, #0x4b0
  404704:	528145a2 	mov	w2, #0xa2d                 	// #2605
  404708:	94002256 	bl	40d060 <__libc_assert_fail>
  40470c:	d2800003 	mov	x3, #0x0                   	// #0
  404710:	52800024 	mov	w4, #0x1                   	// #1
  404714:	17fffeea 	b	4042bc <sysmalloc+0x31c>
  404718:	f0000263 	adrp	x3, 453000 <__PRETTY_FUNCTION__.1+0x578>
  40471c:	d0000261 	adrp	x1, 452000 <__pthread_mutex_cond_lock_full+0x680>
  404720:	f0000260 	adrp	x0, 453000 <__PRETTY_FUNCTION__.1+0x578>
  404724:	913aa063 	add	x3, x3, #0xea8
  404728:	912ca021 	add	x1, x1, #0xb28
  40472c:	91146000 	add	x0, x0, #0x518
  404730:	52816082 	mov	w2, #0xb04                 	// #2820
  404734:	9400224b 	bl	40d060 <__libc_assert_fail>
  404738:	f0000260 	adrp	x0, 453000 <__PRETTY_FUNCTION__.1+0x578>
  40473c:	9113c000 	add	x0, x0, #0x4f0
  404740:	97fff56c 	bl	401cf0 <malloc_printerr>
  404744:	f0000263 	adrp	x3, 453000 <__PRETTY_FUNCTION__.1+0x578>
  404748:	d0000261 	adrp	x1, 452000 <__pthread_mutex_cond_lock_full+0x680>
  40474c:	f0000260 	adrp	x0, 453000 <__PRETTY_FUNCTION__.1+0x578>
  404750:	913aa063 	add	x3, x3, #0xea8
  404754:	912ca021 	add	x1, x1, #0xb28
  404758:	9114a000 	add	x0, x0, #0x528
  40475c:	528163e2 	mov	w2, #0xb1f                 	// #2847
  404760:	94002240 	bl	40d060 <__libc_assert_fail>

0000000000404764 <_int_malloc>:
  404764:	a9b97bfd 	stp	x29, x30, [sp, #-112]!
  404768:	910003fd 	mov	x29, sp
  40476c:	a90153f3 	stp	x19, x20, [sp, #16]
  404770:	b7f829c1 	tbnz	x1, #63, 404ca8 <_int_malloc+0x544>
  404774:	a9025bf5 	stp	x21, x22, [sp, #32]
  404778:	aa0103f5 	mov	x21, x1
  40477c:	a90363f7 	stp	x23, x24, [sp, #48]
  404780:	a9046bf9 	stp	x25, x26, [sp, #64]
  404784:	aa0003f9 	mov	x25, x0
  404788:	a90573fb 	stp	x27, x28, [sp, #80]
  40478c:	91005c3c 	add	x28, x1, #0x17
  404790:	f1007f9f 	cmp	x28, #0x1f
  404794:	54001a09 	b.ls	404ad4 <_int_malloc+0x370>  // b.plast
  404798:	927cef9c 	and	x28, x28, #0xfffffffffffffff0
  40479c:	b4002960 	cbz	x0, 404cc8 <_int_malloc+0x564>
  4047a0:	d0000498 	adrp	x24, 496000 <__pthread_keys+0x39d0>
  4047a4:	9118c300 	add	x0, x24, #0x630
  4047a8:	39401000 	ldrb	w0, [x0, #4]
  4047ac:	eb00039f 	cmp	x28, x0
  4047b0:	54000be8 	b.hi	40492c <_int_malloc+0x1c8>  // b.pmore
  4047b4:	53047f9b 	lsr	w27, w28, #4
  4047b8:	51000b77 	sub	w23, w27, #0x2
  4047bc:	d37d6f76 	ubfiz	x22, x27, #3, #28
  4047c0:	8b374f37 	add	x23, x25, w23, uxtw #3
  4047c4:	f9400af3 	ldr	x19, [x23, #16]
  4047c8:	b4002573 	cbz	x19, 404c74 <_int_malloc+0x510>
  4047cc:	f2400e7f 	tst	x19, #0xf
  4047d0:	54003ac1 	b.ne	404f28 <_int_malloc+0x7c4>  // b.any
  4047d4:	f0000440 	adrp	x0, 48f000 <_IO_file_jumps+0xf8>
  4047d8:	f9464000 	ldr	x0, [x0, #3200]
  4047dc:	f90033e0 	str	x0, [sp, #96]
  4047e0:	8b160336 	add	x22, x25, x22
  4047e4:	39400000 	ldrb	w0, [x0]
  4047e8:	340016a0 	cbz	w0, 404abc <_int_malloc+0x358>
  4047ec:	f9400a60 	ldr	x0, [x19, #16]
  4047f0:	91004274 	add	x20, x19, #0x10
  4047f4:	ca543000 	eor	x0, x0, x20, lsr #12
  4047f8:	f9000ae0 	str	x0, [x23, #16]
  4047fc:	f9400660 	ldr	x0, [x19, #8]
  404800:	6b40137f 	cmp	w27, w0, lsr #4
  404804:	54003d01 	b.ne	404fa4 <_int_malloc+0x840>  // b.any
  404808:	d53bd053 	mrs	x19, tpidr_el0
  40480c:	d100479c 	sub	x28, x28, #0x11
  404810:	91400279 	add	x25, x19, #0x0, lsl #12
  404814:	9100a339 	add	x25, x25, #0x28
  404818:	d344ff93 	lsr	x19, x28, #4
  40481c:	f9400720 	ldr	x0, [x25, #8]
  404820:	b4002100 	cbz	x0, 404c40 <_int_malloc+0x4dc>
  404824:	90000461 	adrp	x1, 490000 <.got.plt+0x18>
  404828:	91014021 	add	x1, x1, #0x50
  40482c:	f9403422 	ldr	x2, [x1, #104]
  404830:	eb13005f 	cmp	x2, x19
  404834:	54002069 	b.ls	404c40 <_int_malloc+0x4dc>  // b.plast
  404838:	f9403c21 	ldr	x1, [x1, #120]
  40483c:	d37d7e62 	ubfiz	x2, x19, #3, #32
  404840:	78737800 	ldrh	w0, [x0, x19, lsl #1]
  404844:	9118c31c 	add	x28, x24, #0x630
  404848:	f90037e2 	str	x2, [sp, #104]
  40484c:	d37f7e73 	ubfiz	x19, x19, #1, #32
  404850:	eb00003f 	cmp	x1, x0
  404854:	54000328 	b.hi	4048b8 <_int_malloc+0x154>  // b.pmore
  404858:	140000fa 	b	404c40 <_int_malloc+0x4dc>
  40485c:	f9400b60 	ldr	x0, [x27, #16]
  404860:	91004364 	add	x4, x27, #0x10
  404864:	d34cfc86 	lsr	x6, x4, #12
  404868:	ca443000 	eor	x0, x0, x4, lsr #12
  40486c:	f9000ae0 	str	x0, [x23, #16]
  404870:	f9400721 	ldr	x1, [x25, #8]
  404874:	90000460 	adrp	x0, 490000 <.got.plt+0x18>
  404878:	f94037e2 	ldr	x2, [sp, #104]
  40487c:	91014000 	add	x0, x0, #0x50
  404880:	f9400785 	ldr	x5, [x28, #8]
  404884:	8b020022 	add	x2, x1, x2
  404888:	f9000f65 	str	x5, [x27, #24]
  40488c:	f9403c05 	ldr	x5, [x0, #120]
  404890:	f9404040 	ldr	x0, [x2, #128]
  404894:	ca060000 	eor	x0, x0, x6
  404898:	f9000b60 	str	x0, [x27, #16]
  40489c:	f9004044 	str	x4, [x2, #128]
  4048a0:	78736820 	ldrh	w0, [x1, x19]
  4048a4:	11000400 	add	w0, w0, #0x1
  4048a8:	12003c00 	and	w0, w0, #0xffff
  4048ac:	78336820 	strh	w0, [x1, x19]
  4048b0:	eb2040bf 	cmp	x5, w0, uxtw
  4048b4:	54001c69 	b.ls	404c40 <_int_malloc+0x4dc>  // b.plast
  4048b8:	f9400afb 	ldr	x27, [x23, #16]
  4048bc:	b4001c3b 	cbz	x27, 404c40 <_int_malloc+0x4dc>
  4048c0:	f2400f7f 	tst	x27, #0xf
  4048c4:	54002c81 	b.ne	404e54 <_int_malloc+0x6f0>  // b.any
  4048c8:	f94033e0 	ldr	x0, [sp, #96]
  4048cc:	39400000 	ldrb	w0, [x0]
  4048d0:	35fffc60 	cbnz	w0, 40485c <_int_malloc+0xf8>
  4048d4:	f9400b60 	ldr	x0, [x27, #16]
  4048d8:	9100437a 	add	x26, x27, #0x10
  4048dc:	ca5a3001 	eor	x1, x0, x26, lsr #12
  4048e0:	eb5a301f 	cmp	x0, x26, lsr #12
  4048e4:	540001a1 	b.ne	404918 <_int_malloc+0x1b4>  // b.any
  4048e8:	aa1603e2 	mov	x2, x22
  4048ec:	aa1b03e0 	mov	x0, x27
  4048f0:	94011528 	bl	449d90 <__aarch64_cas8_acq>
  4048f4:	eb00037f 	cmp	x27, x0
  4048f8:	54001cc0 	b.eq	404c90 <_int_malloc+0x52c>  // b.none
  4048fc:	b4001a20 	cbz	x0, 404c40 <_int_malloc+0x4dc>
  404900:	aa0003fb 	mov	x27, x0
  404904:	9100437a 	add	x26, x27, #0x10
  404908:	f9400b60 	ldr	x0, [x27, #16]
  40490c:	ca5a3001 	eor	x1, x0, x26, lsr #12
  404910:	eb5a301f 	cmp	x0, x26, lsr #12
  404914:	54fffea0 	b.eq	4048e8 <_int_malloc+0x184>  // b.none
  404918:	f2400c3f 	tst	x1, #0xf
  40491c:	54fffe60 	b.eq	4048e8 <_int_malloc+0x184>  // b.none
  404920:	f0000260 	adrp	x0, 453000 <__PRETTY_FUNCTION__.1+0x578>
  404924:	91166000 	add	x0, x0, #0x598
  404928:	97fff4f2 	bl	401cf0 <malloc_printerr>
  40492c:	f10fff9f 	cmp	x28, #0x3ff
  404930:	54002f29 	b.ls	404f14 <_int_malloc+0x7b0>  // b.plast
  404934:	d346ff9b 	lsr	x27, x28, #6
  404938:	1100c37b 	add	w27, w27, #0x30
  40493c:	f130ff9f 	cmp	x28, #0xc3f
  404940:	540000a9 	b.ls	404954 <_int_malloc+0x1f0>  // b.plast
  404944:	d349ff9b 	lsr	x27, x28, #9
  404948:	f100537f 	cmp	x27, #0x14
  40494c:	54002748 	b.hi	404e34 <_int_malloc+0x6d0>  // b.pmore
  404950:	11016f7b 	add	w27, w27, #0x5b
  404954:	91002320 	add	x0, x25, #0x8
  404958:	b9400000 	ldr	w0, [x0]
  40495c:	35001940 	cbnz	w0, 404c84 <_int_malloc+0x520>
  404960:	d53bd053 	mrs	x19, tpidr_el0
  404964:	d1004797 	sub	x23, x28, #0x11
  404968:	91400260 	add	x0, x19, #0x0, lsl #12
  40496c:	9100a000 	add	x0, x0, #0x28
  404970:	d280001a 	mov	x26, #0x0                   	// #0
  404974:	d344fef7 	lsr	x23, x23, #4
  404978:	f9400400 	ldr	x0, [x0, #8]
  40497c:	b40000a0 	cbz	x0, 404990 <_int_malloc+0x22c>
  404980:	90000460 	adrp	x0, 490000 <.got.plt+0x18>
  404984:	f9405c00 	ldr	x0, [x0, #184]
  404988:	eb17001f 	cmp	x0, x23
  40498c:	9a9f839a 	csel	x26, x28, xzr, hi	// hi = pmore
  404990:	f9403f23 	ldr	x3, [x25, #120]
  404994:	91018336 	add	x22, x25, #0x60
  404998:	d2800004 	mov	x4, #0x0                   	// #0
  40499c:	eb16007f 	cmp	x3, x22
  4049a0:	54001f60 	b.eq	404d8c <_int_malloc+0x628>  // b.none
  4049a4:	52800005 	mov	w5, #0x0                   	// #0
  4049a8:	52800006 	mov	w6, #0x0                   	// #0
  4049ac:	f9400460 	ldr	x0, [x3, #8]
  4049b0:	927df000 	and	x0, x0, #0xfffffffffffffff8
  4049b4:	8b000067 	add	x7, x3, x0
  4049b8:	f100401f 	cmp	x0, #0x10
  4049bc:	54001709 	b.ls	404c9c <_int_malloc+0x538>  // b.plast
  4049c0:	f9444722 	ldr	x2, [x25, #2184]
  4049c4:	eb00005f 	cmp	x2, x0
  4049c8:	540016a3 	b.cc	404c9c <_int_malloc+0x538>  // b.lo, b.ul, b.last
  4049cc:	f94004e1 	ldr	x1, [x7, #8]
  4049d0:	f1003c3f 	cmp	x1, #0xf
  4049d4:	fa418040 	ccmp	x2, x1, #0x0, hi	// hi = pmore
  4049d8:	54001983 	b.cc	404d08 <_int_malloc+0x5a4>  // b.lo, b.ul, b.last
  4049dc:	f8606862 	ldr	x2, [x3, x0]
  4049e0:	927df042 	and	x2, x2, #0xfffffffffffffff8
  4049e4:	eb00005f 	cmp	x2, x0
  4049e8:	54002901 	b.ne	404f08 <_int_malloc+0x7a4>  // b.any
  4049ec:	f9400c62 	ldr	x2, [x3, #24]
  4049f0:	f9400848 	ldr	x8, [x2, #16]
  4049f4:	eb08007f 	cmp	x3, x8
  4049f8:	54002341 	b.ne	404e60 <_int_malloc+0x6fc>  // b.any
  4049fc:	f9400868 	ldr	x8, [x3, #16]
  404a00:	eb16011f 	cmp	x8, x22
  404a04:	540022e1 	b.ne	404e60 <_int_malloc+0x6fc>  // b.any
  404a08:	37002c81 	tbnz	w1, #0, 404f98 <_int_malloc+0x834>
  404a0c:	f10fff9f 	cmp	x28, #0x3ff
  404a10:	fa569040 	ccmp	x2, x22, #0x0, ls	// ls = plast
  404a14:	540024e0 	b.eq	404eb0 <_int_malloc+0x74c>  // b.none
  404a18:	f9000ec2 	str	x2, [x22, #24]
  404a1c:	f9000856 	str	x22, [x2, #16]
  404a20:	eb00039f 	cmp	x28, x0
  404a24:	54000e40 	b.eq	404bec <_int_malloc+0x488>  // b.none
  404a28:	f10ffc1f 	cmp	x0, #0x3ff
  404a2c:	54001749 	b.ls	404d14 <_int_malloc+0x5b0>  // b.plast
  404a30:	d346fc02 	lsr	x2, x0, #6
  404a34:	f130fc1f 	cmp	x0, #0xc3f
  404a38:	540025a9 	b.ls	404eec <_int_malloc+0x788>  // b.plast
  404a3c:	d349fc02 	lsr	x2, x0, #9
  404a40:	f100505f 	cmp	x2, #0x14
  404a44:	54003028 	b.hi	405048 <_int_malloc+0x8e4>  // b.pmore
  404a48:	11016c42 	add	w2, w2, #0x5b
  404a4c:	531f7841 	lsl	w1, w2, #1
  404a50:	11003021 	add	w1, w1, #0xc
  404a54:	d37df021 	lsl	x1, x1, #3
  404a58:	8b010321 	add	x1, x25, x1
  404a5c:	f85f0428 	ldr	x8, [x1], #-16
  404a60:	eb08003f 	cmp	x1, x8
  404a64:	54002a60 	b.eq	404fb0 <_int_malloc+0x84c>  // b.none
  404a68:	f9400c27 	ldr	x7, [x1, #24]
  404a6c:	b2400000 	orr	x0, x0, #0x1
  404a70:	f94004e9 	ldr	x9, [x7, #8]
  404a74:	37105609 	tbnz	w9, #2, 405534 <_int_malloc+0xdd0>
  404a78:	eb00013f 	cmp	x9, x0
  404a7c:	54003089 	b.ls	40508c <_int_malloc+0x928>  // b.plast
  404a80:	f9401500 	ldr	x0, [x8, #40]
  404a84:	a9020068 	stp	x8, x0, [x3, #32]
  404a88:	f9001003 	str	x3, [x0, #32]
  404a8c:	f9001503 	str	x3, [x8, #40]
  404a90:	140000a6 	b	404d28 <_int_malloc+0x5c4>
  404a94:	f2400c3f 	tst	x1, #0xf
  404a98:	54fff441 	b.ne	404920 <_int_malloc+0x1bc>  // b.any
  404a9c:	d503201f 	nop
  404aa0:	aa1603e2 	mov	x2, x22
  404aa4:	aa1303e0 	mov	x0, x19
  404aa8:	940114ba 	bl	449d90 <__aarch64_cas8_acq>
  404aac:	eb13001f 	cmp	x0, x19
  404ab0:	54ffea60 	b.eq	4047fc <_int_malloc+0x98>  // b.none
  404ab4:	b4000e00 	cbz	x0, 404c74 <_int_malloc+0x510>
  404ab8:	aa0003f3 	mov	x19, x0
  404abc:	f9400a60 	ldr	x0, [x19, #16]
  404ac0:	91004274 	add	x20, x19, #0x10
  404ac4:	ca543001 	eor	x1, x0, x20, lsr #12
  404ac8:	eb54301f 	cmp	x0, x20, lsr #12
  404acc:	54fffea0 	b.eq	404aa0 <_int_malloc+0x33c>  // b.none
  404ad0:	17fffff1 	b	404a94 <_int_malloc+0x330>
  404ad4:	b4000f80 	cbz	x0, 404cc4 <_int_malloc+0x560>
  404ad8:	d0000498 	adrp	x24, 496000 <__pthread_keys+0x39d0>
  404adc:	9118c300 	add	x0, x24, #0x630
  404ae0:	39401000 	ldrb	w0, [x0, #4]
  404ae4:	71007c1f 	cmp	w0, #0x1f
  404ae8:	54000b88 	b.hi	404c58 <_int_malloc+0x4f4>  // b.pmore
  404aec:	d2801001 	mov	x1, #0x80                  	// #128
  404af0:	5280005b 	mov	w27, #0x2                   	// #2
  404af4:	d280041c 	mov	x28, #0x20                  	// #32
  404af8:	8b010321 	add	x1, x25, x1
  404afc:	d1004021 	sub	x1, x1, #0x10
  404b00:	f9400c20 	ldr	x0, [x1, #24]
  404b04:	eb00003f 	cmp	x1, x0
  404b08:	54fff2c0 	b.eq	404960 <_int_malloc+0x1fc>  // b.none
  404b0c:	f9400c02 	ldr	x2, [x0, #24]
  404b10:	f9400843 	ldr	x3, [x2, #16]
  404b14:	eb00007f 	cmp	x3, x0
  404b18:	54002a81 	b.ne	405068 <_int_malloc+0x904>  // b.any
  404b1c:	8b1c0004 	add	x4, x0, x28
  404b20:	90000467 	adrp	x7, 490000 <.got.plt+0x18>
  404b24:	9103c0e5 	add	x5, x7, #0xf0
  404b28:	f9400483 	ldr	x3, [x4, #8]
  404b2c:	b2400063 	orr	x3, x3, #0x1
  404b30:	f9000483 	str	x3, [x4, #8]
  404b34:	f9000c22 	str	x2, [x1, #24]
  404b38:	f9000841 	str	x1, [x2, #16]
  404b3c:	eb05033f 	cmp	x25, x5
  404b40:	54000080 	b.eq	404b50 <_int_malloc+0x3ec>  // b.none
  404b44:	f9400402 	ldr	x2, [x0, #8]
  404b48:	b27e0042 	orr	x2, x2, #0x4
  404b4c:	f9000402 	str	x2, [x0, #8]
  404b50:	d53bd042 	mrs	x2, tpidr_el0
  404b54:	91400042 	add	x2, x2, #0x0, lsl #12
  404b58:	9100a042 	add	x2, x2, #0x28
  404b5c:	f9400446 	ldr	x6, [x2, #8]
  404b60:	b4000306 	cbz	x6, 404bc0 <_int_malloc+0x45c>
  404b64:	90000463 	adrp	x3, 490000 <.got.plt+0x18>
  404b68:	91014063 	add	x3, x3, #0x50
  404b6c:	d1004782 	sub	x2, x28, #0x11
  404b70:	f9403464 	ldr	x4, [x3, #104]
  404b74:	d344fc42 	lsr	x2, x2, #4
  404b78:	eb02009f 	cmp	x4, x2
  404b7c:	54000229 	b.ls	404bc0 <_int_malloc+0x45c>  // b.plast
  404b80:	d37f7c48 	ubfiz	x8, x2, #1, #32
  404b84:	2a0203e5 	mov	w5, w2
  404b88:	f9403c64 	ldr	x4, [x3, #120]
  404b8c:	8b0800ca 	add	x10, x6, x8
  404b90:	786868c8 	ldrh	w8, [x6, x8]
  404b94:	2a0803e3 	mov	w3, w8
  404b98:	14000005 	b	404bac <_int_malloc+0x448>
  404b9c:	f9400c22 	ldr	x2, [x1, #24]
  404ba0:	eb02003f 	cmp	x1, x2
  404ba4:	540000e0 	b.eq	404bc0 <_int_malloc+0x45c>  // b.none
  404ba8:	b5001c62 	cbnz	x2, 404f34 <_int_malloc+0x7d0>
  404bac:	eb04007f 	cmp	x3, x4
  404bb0:	54ffff63 	b.cc	404b9c <_int_malloc+0x438>  // b.lo, b.ul, b.last
  404bb4:	d503201f 	nop
  404bb8:	d503201f 	nop
  404bbc:	d503201f 	nop
  404bc0:	b9463301 	ldr	w1, [x24, #1584]
  404bc4:	91004014 	add	x20, x0, #0x10
  404bc8:	35000401 	cbnz	w1, 404c48 <_int_malloc+0x4e4>
  404bcc:	a9425bf5 	ldp	x21, x22, [sp, #32]
  404bd0:	a94363f7 	ldp	x23, x24, [sp, #48]
  404bd4:	a9446bf9 	ldp	x25, x26, [sp, #64]
  404bd8:	a94573fb 	ldp	x27, x28, [sp, #80]
  404bdc:	aa1403e0 	mov	x0, x20
  404be0:	a94153f3 	ldp	x19, x20, [sp, #16]
  404be4:	a8c77bfd 	ldp	x29, x30, [sp], #112
  404be8:	d65f03c0 	ret
  404bec:	b2400021 	orr	x1, x1, #0x1
  404bf0:	90000460 	adrp	x0, 490000 <.got.plt+0x18>
  404bf4:	9103c000 	add	x0, x0, #0xf0
  404bf8:	f90004e1 	str	x1, [x7, #8]
  404bfc:	eb00033f 	cmp	x25, x0
  404c00:	54000080 	b.eq	404c10 <_int_malloc+0x4ac>  // b.none
  404c04:	f9400460 	ldr	x0, [x3, #8]
  404c08:	b27e0000 	orr	x0, x0, #0x4
  404c0c:	f9000460 	str	x0, [x3, #8]
  404c10:	91004074 	add	x20, x3, #0x10
  404c14:	b400017a 	cbz	x26, 404c40 <_int_malloc+0x4dc>
  404c18:	91400261 	add	x1, x19, #0x0, lsl #12
  404c1c:	9100a021 	add	x1, x1, #0x28
  404c20:	90000460 	adrp	x0, 490000 <.got.plt+0x18>
  404c24:	d37ffae2 	lsl	x2, x23, #1
  404c28:	f9406406 	ldr	x6, [x0, #200]
  404c2c:	f9400421 	ldr	x1, [x1, #8]
  404c30:	78626820 	ldrh	w0, [x1, x2]
  404c34:	eb2040df 	cmp	x6, w0, uxtw
  404c38:	54001268 	b.hi	404e84 <_int_malloc+0x720>  // b.pmore
  404c3c:	d503201f 	nop
  404c40:	b9463301 	ldr	w1, [x24, #1584]
  404c44:	34fffc41 	cbz	w1, 404bcc <_int_malloc+0x468>
  404c48:	aa1503e2 	mov	x2, x21
  404c4c:	52001c21 	eor	w1, w1, #0xff
  404c50:	aa1403e0 	mov	x0, x20
  404c54:	14000027 	b	404cf0 <_int_malloc+0x58c>
  404c58:	52800017 	mov	w23, #0x0                   	// #0
  404c5c:	d2800216 	mov	x22, #0x10                  	// #16
  404c60:	8b374f37 	add	x23, x25, w23, uxtw #3
  404c64:	5280005b 	mov	w27, #0x2                   	// #2
  404c68:	d280041c 	mov	x28, #0x20                  	// #32
  404c6c:	f9400af3 	ldr	x19, [x23, #16]
  404c70:	b5ffdaf3 	cbnz	x19, 4047cc <_int_malloc+0x68>
  404c74:	531f7b62 	lsl	w2, w27, #1
  404c78:	11003041 	add	w1, w2, #0xc
  404c7c:	d37df021 	lsl	x1, x1, #3
  404c80:	17ffff9e 	b	404af8 <_int_malloc+0x394>
  404c84:	aa1903e0 	mov	x0, x25
  404c88:	97fff61e 	bl	402500 <malloc_consolidate>
  404c8c:	17ffff35 	b	404960 <_int_malloc+0x1fc>
  404c90:	aa1a03e4 	mov	x4, x26
  404c94:	d34cff46 	lsr	x6, x26, #12
  404c98:	17fffef6 	b	404870 <_int_malloc+0x10c>
  404c9c:	f0000260 	adrp	x0, 453000 <__PRETTY_FUNCTION__.1+0x578>
  404ca0:	91194000 	add	x0, x0, #0x650
  404ca4:	97fff413 	bl	401cf0 <malloc_printerr>
  404ca8:	d2a00000 	movz	x0, #0x0, lsl #16
  404cac:	f2800780 	movk	x0, #0x3c
  404cb0:	d53bd041 	mrs	x1, tpidr_el0
  404cb4:	52800182 	mov	w2, #0xc                   	// #12
  404cb8:	d2800014 	mov	x20, #0x0                   	// #0
  404cbc:	b8206822 	str	w2, [x1, x0]
  404cc0:	17ffffc7 	b	404bdc <_int_malloc+0x478>
  404cc4:	d280041c 	mov	x28, #0x20                  	// #32
  404cc8:	aa1c03e0 	mov	x0, x28
  404ccc:	d2800001 	mov	x1, #0x0                   	// #0
  404cd0:	97fffcb4 	bl	403fa0 <sysmalloc>
  404cd4:	aa0003f4 	mov	x20, x0
  404cd8:	b4000ca0 	cbz	x0, 404e6c <_int_malloc+0x708>
  404cdc:	d0000481 	adrp	x1, 496000 <__pthread_keys+0x39d0>
  404ce0:	b9463021 	ldr	w1, [x1, #1584]
  404ce4:	34fff741 	cbz	w1, 404bcc <_int_malloc+0x468>
  404ce8:	aa1503e2 	mov	x2, x21
  404cec:	52001c21 	eor	w1, w1, #0xff
  404cf0:	97ffed6c 	bl	4002a0 <.plt+0x30>
  404cf4:	a9425bf5 	ldp	x21, x22, [sp, #32]
  404cf8:	a94363f7 	ldp	x23, x24, [sp, #48]
  404cfc:	a9446bf9 	ldp	x25, x26, [sp, #64]
  404d00:	a94573fb 	ldp	x27, x28, [sp, #80]
  404d04:	17ffffb6 	b	404bdc <_int_malloc+0x478>
  404d08:	f0000260 	adrp	x0, 453000 <__PRETTY_FUNCTION__.1+0x578>
  404d0c:	9119e000 	add	x0, x0, #0x678
  404d10:	97fff3f8 	bl	401cf0 <malloc_printerr>
  404d14:	53047c02 	lsr	w2, w0, #4
  404d18:	531f7847 	lsl	w7, w2, #1
  404d1c:	110030e7 	add	w7, w7, #0xc
  404d20:	8b070f27 	add	x7, x25, x7, lsl #3
  404d24:	f85f04e1 	ldr	x1, [x7], #-16
  404d28:	13057c40 	asr	w0, w2, #5
  404d2c:	52800028 	mov	w8, #0x1                   	// #1
  404d30:	91000484 	add	x4, x4, #0x1
  404d34:	8b000b20 	add	x0, x25, x0, lsl #2
  404d38:	1ac22108 	lsl	w8, w8, w2
  404d3c:	b9486002 	ldr	w2, [x0, #2144]
  404d40:	2a080042 	orr	w2, w2, w8
  404d44:	b9086002 	str	w2, [x0, #2144]
  404d48:	a9011c61 	stp	x1, x7, [x3, #16]
  404d4c:	f9000c23 	str	x3, [x1, #24]
  404d50:	f90008e3 	str	x3, [x7, #16]
  404d54:	340000c6 	cbz	w6, 404d6c <_int_malloc+0x608>
  404d58:	90000460 	adrp	x0, 490000 <.got.plt+0x18>
  404d5c:	f9406800 	ldr	x0, [x0, #208]
  404d60:	f100001f 	cmp	x0, #0x0
  404d64:	fa441002 	ccmp	x0, x4, #0x2, ne	// ne = any
  404d68:	54002783 	b.cc	405258 <_int_malloc+0xaf4>  // b.lo, b.ul, b.last
  404d6c:	110004a5 	add	w5, w5, #0x1
  404d70:	5284e1e0 	mov	w0, #0x270f                	// #9999
  404d74:	6b0000bf 	cmp	w5, w0
  404d78:	5400008c 	b.gt	404d88 <_int_malloc+0x624>
  404d7c:	f9400ec3 	ldr	x3, [x22, #24]
  404d80:	eb16007f 	cmp	x3, x22
  404d84:	54ffe141 	b.ne	4049ac <_int_malloc+0x248>  // b.any
  404d88:	35002686 	cbnz	w6, 405258 <_int_malloc+0xaf4>
  404d8c:	531f7b62 	lsl	w2, w27, #1
  404d90:	f10fff9f 	cmp	x28, #0x3ff
  404d94:	54000149 	b.ls	404dbc <_int_malloc+0x658>  // b.plast
  404d98:	531f7b62 	lsl	w2, w27, #1
  404d9c:	11003041 	add	w1, w2, #0xc
  404da0:	8b010f21 	add	x1, x25, x1, lsl #3
  404da4:	f85f0420 	ldr	x0, [x1], #-16
  404da8:	eb01001f 	cmp	x0, x1
  404dac:	54000080 	b.eq	404dbc <_int_malloc+0x658>  // b.none
  404db0:	f9400403 	ldr	x3, [x0, #8]
  404db4:	eb03039f 	cmp	x28, x3
  404db8:	54002d69 	b.ls	405364 <_int_malloc+0xc00>  // b.plast
  404dbc:	928001e5 	mov	x5, #0xfffffffffffffff0    	// #-16
  404dc0:	52800034 	mov	w20, #0x1                   	// #1
  404dc4:	11000761 	add	w1, w27, #0x1
  404dc8:	11003842 	add	w2, w2, #0xe
  404dcc:	53057c20 	lsr	w0, w1, #5
  404dd0:	8b224ca2 	add	x2, x5, w2, uxtw #3
  404dd4:	91086000 	add	x0, x0, #0x218
  404dd8:	8b020322 	add	x2, x25, x2
  404ddc:	53057c26 	lsr	w6, w1, #5
  404de0:	1ac12281 	lsl	w1, w20, w1
  404de4:	b8607b23 	ldr	w3, [x25, x0, lsl #2]
  404de8:	51000420 	sub	w0, w1, #0x1
  404dec:	6b00007f 	cmp	w3, w0
  404df0:	540000a8 	b.hi	404e04 <_int_malloc+0x6a0>  // b.pmore
  404df4:	14000072 	b	404fbc <_int_malloc+0x858>
  404df8:	91004042 	add	x2, x2, #0x10
  404dfc:	531f7821 	lsl	w1, w1, #1
  404e00:	34002821 	cbz	w1, 405304 <_int_malloc+0xba0>
  404e04:	6a03003f 	tst	w1, w3
  404e08:	54ffff80 	b.eq	404df8 <_int_malloc+0x694>  // b.none
  404e0c:	f9400c5b 	ldr	x27, [x2, #24]
  404e10:	eb1b005f 	cmp	x2, x27
  404e14:	54001b21 	b.ne	405178 <_int_malloc+0xa14>  // b.any
  404e18:	2a0603e0 	mov	w0, w6
  404e1c:	0a210063 	bic	w3, w3, w1
  404e20:	91086000 	add	x0, x0, #0x218
  404e24:	91004042 	add	x2, x2, #0x10
  404e28:	531f7821 	lsl	w1, w1, #1
  404e2c:	b8207b23 	str	w3, [x25, x0, lsl #2]
  404e30:	17ffffee 	b	404de8 <_int_malloc+0x684>
  404e34:	d34cff9b 	lsr	x27, x28, #12
  404e38:	f1002b7f 	cmp	x27, #0xa
  404e3c:	54000629 	b.ls	404f00 <_int_malloc+0x79c>  // b.plast
  404e40:	d34fff9b 	lsr	x27, x28, #15
  404e44:	f100137f 	cmp	x27, #0x4
  404e48:	54001168 	b.hi	405074 <_int_malloc+0x910>  // b.pmore
  404e4c:	1101df7b 	add	w27, w27, #0x77
  404e50:	17fffec1 	b	404954 <_int_malloc+0x1f0>
  404e54:	f0000260 	adrp	x0, 453000 <__PRETTY_FUNCTION__.1+0x578>
  404e58:	9117c000 	add	x0, x0, #0x5f0
  404e5c:	97fff3a5 	bl	401cf0 <malloc_printerr>
  404e60:	f0000260 	adrp	x0, 453000 <__PRETTY_FUNCTION__.1+0x578>
  404e64:	911b6000 	add	x0, x0, #0x6d8
  404e68:	97fff3a2 	bl	401cf0 <malloc_printerr>
  404e6c:	a9425bf5 	ldp	x21, x22, [sp, #32]
  404e70:	d2800014 	mov	x20, #0x0                   	// #0
  404e74:	a94363f7 	ldp	x23, x24, [sp, #48]
  404e78:	a9446bf9 	ldp	x25, x26, [sp, #64]
  404e7c:	a94573fb 	ldp	x27, x28, [sp, #80]
  404e80:	17ffff57 	b	404bdc <_int_malloc+0x478>
  404e84:	8b170c29 	add	x9, x1, x23, lsl #3
  404e88:	9118c308 	add	x8, x24, #0x630
  404e8c:	11000400 	add	w0, w0, #0x1
  404e90:	52800026 	mov	w6, #0x1                   	// #1
  404e94:	f9404127 	ldr	x7, [x9, #128]
  404e98:	f9400508 	ldr	x8, [x8, #8]
  404e9c:	ca5430e7 	eor	x7, x7, x20, lsr #12
  404ea0:	a9012067 	stp	x7, x8, [x3, #16]
  404ea4:	f9004134 	str	x20, [x9, #128]
  404ea8:	78226820 	strh	w0, [x1, x2]
  404eac:	17ffffb4 	b	404d7c <_int_malloc+0x618>
  404eb0:	f9403728 	ldr	x8, [x25, #104]
  404eb4:	eb08007f 	cmp	x3, x8
  404eb8:	54ffdb01 	b.ne	404a18 <_int_malloc+0x2b4>  // b.any
  404ebc:	91008388 	add	x8, x28, #0x20
  404ec0:	eb00011f 	cmp	x8, x0
  404ec4:	54002b83 	b.cc	405434 <_int_malloc+0xcd0>  // b.lo, b.ul, b.last
  404ec8:	f9000ec2 	str	x2, [x22, #24]
  404ecc:	f9000856 	str	x22, [x2, #16]
  404ed0:	eb00039f 	cmp	x28, x0
  404ed4:	54ffe8c0 	b.eq	404bec <_int_malloc+0x488>  // b.none
  404ed8:	f10ffc1f 	cmp	x0, #0x3ff
  404edc:	54fff1c9 	b.ls	404d14 <_int_malloc+0x5b0>  // b.plast
  404ee0:	d2808c01 	mov	x1, #0x460                 	// #1120
  404ee4:	52800802 	mov	w2, #0x40                  	// #64
  404ee8:	17fffedc 	b	404a58 <_int_malloc+0x2f4>
  404eec:	1100c042 	add	w2, w2, #0x30
  404ef0:	531f7841 	lsl	w1, w2, #1
  404ef4:	11003021 	add	w1, w1, #0xc
  404ef8:	d37df021 	lsl	x1, x1, #3
  404efc:	17fffed7 	b	404a58 <_int_malloc+0x2f4>
  404f00:	1101bb7b 	add	w27, w27, #0x6e
  404f04:	17fffe94 	b	404954 <_int_malloc+0x1f0>
  404f08:	f0000260 	adrp	x0, 453000 <__PRETTY_FUNCTION__.1+0x578>
  404f0c:	911a8000 	add	x0, x0, #0x6a0
  404f10:	97fff378 	bl	401cf0 <malloc_printerr>
  404f14:	53037f82 	lsr	w2, w28, #3
  404f18:	53047f9b 	lsr	w27, w28, #4
  404f1c:	11003041 	add	w1, w2, #0xc
  404f20:	d37df021 	lsl	x1, x1, #3
  404f24:	17fffef5 	b	404af8 <_int_malloc+0x394>
  404f28:	f0000260 	adrp	x0, 453000 <__PRETTY_FUNCTION__.1+0x578>
  404f2c:	9115a000 	add	x0, x0, #0x568
  404f30:	97fff370 	bl	401cf0 <malloc_printerr>
  404f34:	8b1c004b 	add	x11, x2, x28
  404f38:	9103c0e3 	add	x3, x7, #0xf0
  404f3c:	f9400c4d 	ldr	x13, [x2, #24]
  404f40:	f9400569 	ldr	x9, [x11, #8]
  404f44:	b2400129 	orr	x9, x9, #0x1
  404f48:	f9000569 	str	x9, [x11, #8]
  404f4c:	eb03033f 	cmp	x25, x3
  404f50:	54000080 	b.eq	404f60 <_int_malloc+0x7fc>  // b.none
  404f54:	f9400443 	ldr	x3, [x2, #8]
  404f58:	b27e0063 	orr	x3, x3, #0x4
  404f5c:	f9000443 	str	x3, [x2, #8]
  404f60:	8b050ccb 	add	x11, x6, x5, lsl #3
  404f64:	9118c309 	add	x9, x24, #0x630
  404f68:	9100404c 	add	x12, x2, #0x10
  404f6c:	11000508 	add	w8, w8, #0x1
  404f70:	12003d08 	and	w8, w8, #0xffff
  404f74:	f9404163 	ldr	x3, [x11, #128]
  404f78:	f9000c2d 	str	x13, [x1, #24]
  404f7c:	f9400529 	ldr	x9, [x9, #8]
  404f80:	f90009a1 	str	x1, [x13, #16]
  404f84:	ca4c3063 	eor	x3, x3, x12, lsr #12
  404f88:	a9012443 	stp	x3, x9, [x2, #16]
  404f8c:	f900416c 	str	x12, [x11, #128]
  404f90:	79000148 	strh	w8, [x10]
  404f94:	17ffff00 	b	404b94 <_int_malloc+0x430>
  404f98:	f0000260 	adrp	x0, 453000 <__PRETTY_FUNCTION__.1+0x578>
  404f9c:	911c2000 	add	x0, x0, #0x708
  404fa0:	97fff354 	bl	401cf0 <malloc_printerr>
  404fa4:	f0000260 	adrp	x0, 453000 <__PRETTY_FUNCTION__.1+0x578>
  404fa8:	91172000 	add	x0, x0, #0x5c8
  404fac:	97fff351 	bl	401cf0 <malloc_printerr>
  404fb0:	aa0103e7 	mov	x7, x1
  404fb4:	a9020c63 	stp	x3, x3, [x3, #32]
  404fb8:	17ffff5c 	b	404d28 <_int_malloc+0x5c4>
  404fbc:	110004c0 	add	w0, w6, #0x1
  404fc0:	8b204b21 	add	x1, x25, w0, uxtw #2
  404fc4:	14000005 	b	404fd8 <_int_malloc+0x874>
  404fc8:	b9486023 	ldr	w3, [x1, #2144]
  404fcc:	91001021 	add	x1, x1, #0x4
  404fd0:	35000903 	cbnz	w3, 4050f0 <_int_malloc+0x98c>
  404fd4:	11000400 	add	w0, w0, #0x1
  404fd8:	2a0003e6 	mov	w6, w0
  404fdc:	71000c1f 	cmp	w0, #0x3
  404fe0:	54ffff49 	b.ls	404fc8 <_int_malloc+0x864>  // b.plast
  404fe4:	f9403321 	ldr	x1, [x25, #96]
  404fe8:	f9444722 	ldr	x2, [x25, #2184]
  404fec:	f9400420 	ldr	x0, [x1, #8]
  404ff0:	927df000 	and	x0, x0, #0xfffffffffffffff8
  404ff4:	eb00005f 	cmp	x2, x0
  404ff8:	540011a3 	b.cc	40522c <_int_malloc+0xac8>  // b.lo, b.ul, b.last
  404ffc:	91008382 	add	x2, x28, #0x20
  405000:	eb00005f 	cmp	x2, x0
  405004:	54002449 	b.ls	40548c <_int_malloc+0xd28>  // b.plast
  405008:	91002320 	add	x0, x25, #0x8
  40500c:	f90033e4 	str	x4, [sp, #96]
  405010:	b9400000 	ldr	w0, [x0]
  405014:	340025c0 	cbz	w0, 4054cc <_int_malloc+0xd68>
  405018:	aa1903e0 	mov	x0, x25
  40501c:	97fff539 	bl	402500 <malloc_consolidate>
  405020:	f94033e4 	ldr	x4, [sp, #96]
  405024:	f10fff9f 	cmp	x28, #0x3ff
  405028:	54000988 	b.hi	405158 <_int_malloc+0x9f4>  // b.pmore
  40502c:	f9400ec3 	ldr	x3, [x22, #24]
  405030:	53047f9b 	lsr	w27, w28, #4
  405034:	928001e5 	mov	x5, #0xfffffffffffffff0    	// #-16
  405038:	eb16007f 	cmp	x3, x22
  40503c:	54ffcb41 	b.ne	4049a4 <_int_malloc+0x240>  // b.any
  405040:	531f7b62 	lsl	w2, w27, #1
  405044:	17ffff60 	b	404dc4 <_int_malloc+0x660>
  405048:	d34cfc02 	lsr	x2, x0, #12
  40504c:	f100285f 	cmp	x2, #0xa
  405050:	540005e8 	b.hi	40510c <_int_malloc+0x9a8>  // b.pmore
  405054:	1101b842 	add	w2, w2, #0x6e
  405058:	531f7841 	lsl	w1, w2, #1
  40505c:	11003021 	add	w1, w1, #0xc
  405060:	d37df021 	lsl	x1, x1, #3
  405064:	17fffe7d 	b	404a58 <_int_malloc+0x2f4>
  405068:	d0000260 	adrp	x0, 453000 <__PRETTY_FUNCTION__.1+0x578>
  40506c:	91188000 	add	x0, x0, #0x620
  405070:	97fff320 	bl	401cf0 <malloc_printerr>
  405074:	d352ff9b 	lsr	x27, x28, #18
  405078:	d2800040 	mov	x0, #0x2                   	// #2
  40507c:	eb00037f 	cmp	x27, x0
  405080:	9a80937b 	csel	x27, x27, x0, ls	// ls = plast
  405084:	1101f37b 	add	w27, w27, #0x7c
  405088:	17fffe33 	b	404954 <_int_malloc+0x1f0>
  40508c:	f9400501 	ldr	x1, [x8, #8]
  405090:	361000a1 	tbz	w1, #2, 4050a4 <_int_malloc+0x940>
  405094:	14000120 	b	405514 <_int_malloc+0xdb0>
  405098:	f9401108 	ldr	x8, [x8, #32]
  40509c:	f9400501 	ldr	x1, [x8, #8]
  4050a0:	37101521 	tbnz	w1, #2, 405344 <_int_malloc+0xbe0>
  4050a4:	eb01001f 	cmp	x0, x1
  4050a8:	54ffff83 	b.cc	405098 <_int_malloc+0x934>  // b.lo, b.ul, b.last
  4050ac:	54000400 	b.eq	40512c <_int_malloc+0x9c8>  // b.none
  4050b0:	f9401500 	ldr	x0, [x8, #40]
  4050b4:	a9020068 	stp	x8, x0, [x3, #32]
  4050b8:	f9401000 	ldr	x0, [x0, #32]
  4050bc:	eb08001f 	cmp	x0, x8
  4050c0:	54000f41 	b.ne	4052a8 <_int_malloc+0xb44>  // b.any
  4050c4:	f9001503 	str	x3, [x8, #40]
  4050c8:	aa0803e1 	mov	x1, x8
  4050cc:	f9401460 	ldr	x0, [x3, #40]
  4050d0:	f9001003 	str	x3, [x0, #32]
  4050d4:	f9400c27 	ldr	x7, [x1, #24]
  4050d8:	f94008e0 	ldr	x0, [x7, #16]
  4050dc:	eb01001f 	cmp	x0, x1
  4050e0:	54ffe240 	b.eq	404d28 <_int_malloc+0x5c4>  // b.none
  4050e4:	d0000260 	adrp	x0, 453000 <__PRETTY_FUNCTION__.1+0x578>
  4050e8:	911ec000 	add	x0, x0, #0x7b0
  4050ec:	97fff301 	bl	401cf0 <malloc_printerr>
  4050f0:	531a6402 	lsl	w2, w0, #6
  4050f4:	d2800c00 	mov	x0, #0x60                  	// #96
  4050f8:	51000842 	sub	w2, w2, #0x2
  4050fc:	52800021 	mov	w1, #0x1                   	// #1
  405100:	8b224c02 	add	x2, x0, w2, uxtw #3
  405104:	8b020322 	add	x2, x25, x2
  405108:	17ffff3f 	b	404e04 <_int_malloc+0x6a0>
  40510c:	d34ffc02 	lsr	x2, x0, #15
  405110:	f100105f 	cmp	x2, #0x4
  405114:	54000108 	b.hi	405134 <_int_malloc+0x9d0>  // b.pmore
  405118:	1101dc42 	add	w2, w2, #0x77
  40511c:	531f7841 	lsl	w1, w2, #1
  405120:	11003021 	add	w1, w1, #0xc
  405124:	d37df021 	lsl	x1, x1, #3
  405128:	17fffe4c 	b	404a58 <_int_malloc+0x2f4>
  40512c:	f9400901 	ldr	x1, [x8, #16]
  405130:	17ffffe9 	b	4050d4 <_int_malloc+0x970>
  405134:	d352fc02 	lsr	x2, x0, #18
  405138:	d2800041 	mov	x1, #0x2                   	// #2
  40513c:	eb01005f 	cmp	x2, x1
  405140:	9a819042 	csel	x2, x2, x1, ls	// ls = plast
  405144:	1101f042 	add	w2, w2, #0x7c
  405148:	531f7841 	lsl	w1, w2, #1
  40514c:	11003021 	add	w1, w1, #0xc
  405150:	d37df021 	lsl	x1, x1, #3
  405154:	17fffe41 	b	404a58 <_int_malloc+0x2f4>
  405158:	d346ff9b 	lsr	x27, x28, #6
  40515c:	f130ff9f 	cmp	x28, #0xc3f
  405160:	54000568 	b.hi	40520c <_int_malloc+0xaa8>  // b.pmore
  405164:	f9400ec3 	ldr	x3, [x22, #24]
  405168:	1100c37b 	add	w27, w27, #0x30
  40516c:	eb16007f 	cmp	x3, x22
  405170:	54ffc1a1 	b.ne	4049a4 <_int_malloc+0x240>  // b.any
  405174:	17ffff09 	b	404d98 <_int_malloc+0x634>
  405178:	f9400773 	ldr	x19, [x27, #8]
  40517c:	927df273 	and	x19, x19, #0xfffffffffffffff8
  405180:	eb13039f 	cmp	x28, x19
  405184:	54001b88 	b.hi	4054f4 <_int_malloc+0xd90>  // b.pmore
  405188:	cb1c0274 	sub	x20, x19, x28
  40518c:	aa1b03e0 	mov	x0, x27
  405190:	97fff4a6 	bl	402428 <unlink_chunk.isra.0>
  405194:	f1007e9f 	cmp	x20, #0x1f
  405198:	540008e9 	b.ls	4052b4 <_int_malloc+0xb50>  // b.plast
  40519c:	f9400ac1 	ldr	x1, [x22, #16]
  4051a0:	8b1c0360 	add	x0, x27, x28
  4051a4:	f9400c22 	ldr	x2, [x1, #24]
  4051a8:	eb16005f 	cmp	x2, x22
  4051ac:	540013e1 	b.ne	405428 <_int_malloc+0xcc4>  // b.any
  4051b0:	a9015801 	stp	x1, x22, [x0, #16]
  4051b4:	f9000ac0 	str	x0, [x22, #16]
  4051b8:	f9000c20 	str	x0, [x1, #24]
  4051bc:	f10fff9f 	cmp	x28, #0x3ff
  4051c0:	54000048 	b.hi	4051c8 <_int_malloc+0xa64>  // b.pmore
  4051c4:	f9003720 	str	x0, [x25, #104]
  4051c8:	f10ffe9f 	cmp	x20, #0x3ff
  4051cc:	54000049 	b.ls	4051d4 <_int_malloc+0xa70>  // b.plast
  4051d0:	a9027c1f 	stp	xzr, xzr, [x0, #32]
  4051d4:	f0000441 	adrp	x1, 490000 <.got.plt+0x18>
  4051d8:	9103c021 	add	x1, x1, #0xf0
  4051dc:	b2400282 	orr	x2, x20, #0x1
  4051e0:	eb01033f 	cmp	x25, x1
  4051e4:	9a9f07e1 	cset	x1, ne	// ne = any
  4051e8:	aa010b81 	orr	x1, x28, x1, lsl #2
  4051ec:	b2400021 	orr	x1, x1, #0x1
  4051f0:	f9000761 	str	x1, [x27, #8]
  4051f4:	f9000402 	str	x2, [x0, #8]
  4051f8:	f8336b74 	str	x20, [x27, x19]
  4051fc:	b9463301 	ldr	w1, [x24, #1584]
  405200:	91004374 	add	x20, x27, #0x10
  405204:	34ffce41 	cbz	w1, 404bcc <_int_malloc+0x468>
  405208:	17fffe90 	b	404c48 <_int_malloc+0x4e4>
  40520c:	d349ff9b 	lsr	x27, x28, #9
  405210:	f100537f 	cmp	x27, #0x14
  405214:	54000128 	b.hi	405238 <_int_malloc+0xad4>  // b.pmore
  405218:	f9400ec3 	ldr	x3, [x22, #24]
  40521c:	11016f7b 	add	w27, w27, #0x5b
  405220:	eb16007f 	cmp	x3, x22
  405224:	54ffbc01 	b.ne	4049a4 <_int_malloc+0x240>  // b.any
  405228:	17fffedc 	b	404d98 <_int_malloc+0x634>
  40522c:	d0000260 	adrp	x0, 453000 <__PRETTY_FUNCTION__.1+0x578>
  405230:	9122a000 	add	x0, x0, #0x8a8
  405234:	97fff2af 	bl	401cf0 <malloc_printerr>
  405238:	d34cff9b 	lsr	x27, x28, #12
  40523c:	f1002b7f 	cmp	x27, #0xa
  405240:	54000528 	b.hi	4052e4 <_int_malloc+0xb80>  // b.pmore
  405244:	f9400ec3 	ldr	x3, [x22, #24]
  405248:	1101bb7b 	add	w27, w27, #0x6e
  40524c:	eb16007f 	cmp	x3, x22
  405250:	54ffbaa1 	b.ne	4049a4 <_int_malloc+0x240>  // b.any
  405254:	17fffed1 	b	404d98 <_int_malloc+0x634>
  405258:	91400273 	add	x19, x19, #0x0, lsl #12
  40525c:	9100a273 	add	x19, x19, #0x28
  405260:	f9400660 	ldr	x0, [x19, #8]
  405264:	8b170c02 	add	x2, x0, x23, lsl #3
  405268:	f9404054 	ldr	x20, [x2, #128]
  40526c:	f2400e9f 	tst	x20, #0xf
  405270:	540013c1 	b.ne	4054e8 <_int_malloc+0xd84>  // b.any
  405274:	f9400281 	ldr	x1, [x20]
  405278:	d37ffaf7 	lsl	x23, x23, #1
  40527c:	ca543021 	eor	x1, x1, x20, lsr #12
  405280:	f9004041 	str	x1, [x2, #128]
  405284:	78776801 	ldrh	w1, [x0, x23]
  405288:	51000421 	sub	w1, w1, #0x1
  40528c:	78376801 	strh	w1, [x0, x23]
  405290:	f900069f 	str	xzr, [x20, #8]
  405294:	a9425bf5 	ldp	x21, x22, [sp, #32]
  405298:	a94363f7 	ldp	x23, x24, [sp, #48]
  40529c:	a9446bf9 	ldp	x25, x26, [sp, #64]
  4052a0:	a94573fb 	ldp	x27, x28, [sp, #80]
  4052a4:	17fffe4e 	b	404bdc <_int_malloc+0x478>
  4052a8:	d0000260 	adrp	x0, 453000 <__PRETTY_FUNCTION__.1+0x578>
  4052ac:	911dc000 	add	x0, x0, #0x770
  4052b0:	97fff290 	bl	401cf0 <malloc_printerr>
  4052b4:	8b130373 	add	x19, x27, x19
  4052b8:	f0000440 	adrp	x0, 490000 <.got.plt+0x18>
  4052bc:	9103c000 	add	x0, x0, #0xf0
  4052c0:	f9400661 	ldr	x1, [x19, #8]
  4052c4:	b2400021 	orr	x1, x1, #0x1
  4052c8:	f9000661 	str	x1, [x19, #8]
  4052cc:	eb00033f 	cmp	x25, x0
  4052d0:	54fff960 	b.eq	4051fc <_int_malloc+0xa98>  // b.none
  4052d4:	f9400760 	ldr	x0, [x27, #8]
  4052d8:	b27e0000 	orr	x0, x0, #0x4
  4052dc:	f9000760 	str	x0, [x27, #8]
  4052e0:	17ffffc7 	b	4051fc <_int_malloc+0xa98>
  4052e4:	d34fff9b 	lsr	x27, x28, #15
  4052e8:	f9400ec3 	ldr	x3, [x22, #24]
  4052ec:	f100137f 	cmp	x27, #0x4
  4052f0:	540001a8 	b.hi	405324 <_int_malloc+0xbc0>  // b.pmore
  4052f4:	1101df7b 	add	w27, w27, #0x77
  4052f8:	eb16007f 	cmp	x3, x22
  4052fc:	54ffb541 	b.ne	4049a4 <_int_malloc+0x240>  // b.any
  405300:	17fffea6 	b	404d98 <_int_malloc+0x634>
  405304:	d0000263 	adrp	x3, 453000 <__PRETTY_FUNCTION__.1+0x578>
  405308:	b0000261 	adrp	x1, 452000 <__pthread_mutex_cond_lock_full+0x680>
  40530c:	d0000260 	adrp	x0, 453000 <__PRETTY_FUNCTION__.1+0x578>
  405310:	913ae063 	add	x3, x3, #0xeb8
  405314:	912ca021 	add	x1, x1, #0xb28
  405318:	91210000 	add	x0, x0, #0x840
  40531c:	528220a2 	mov	w2, #0x1105                	// #4357
  405320:	94001f50 	bl	40d060 <__libc_assert_fail>
  405324:	d352ff9b 	lsr	x27, x28, #18
  405328:	d2800040 	mov	x0, #0x2                   	// #2
  40532c:	f1000b7f 	cmp	x27, #0x2
  405330:	9a80937b 	csel	x27, x27, x0, ls	// ls = plast
  405334:	1101f37b 	add	w27, w27, #0x7c
  405338:	eb16007f 	cmp	x3, x22
  40533c:	54ffb341 	b.ne	4049a4 <_int_malloc+0x240>  // b.any
  405340:	17fffe96 	b	404d98 <_int_malloc+0x634>
  405344:	d0000263 	adrp	x3, 453000 <__PRETTY_FUNCTION__.1+0x578>
  405348:	b0000261 	adrp	x1, 452000 <__pthread_mutex_cond_lock_full+0x680>
  40534c:	d0000260 	adrp	x0, 453000 <__PRETTY_FUNCTION__.1+0x578>
  405350:	913ae063 	add	x3, x3, #0xeb8
  405354:	912ca021 	add	x1, x1, #0xb28
  405358:	911d6000 	add	x0, x0, #0x758
  40535c:	52820c82 	mov	w2, #0x1064                	// #4196
  405360:	94001f40 	bl	40d060 <__libc_assert_fail>
  405364:	f9401414 	ldr	x20, [x0, #40]
  405368:	14000002 	b	405370 <_int_malloc+0xc0c>
  40536c:	f9401694 	ldr	x20, [x20, #40]
  405370:	f9400682 	ldr	x2, [x20, #8]
  405374:	927df053 	and	x19, x2, #0xfffffffffffffff8
  405378:	eb13039f 	cmp	x28, x19
  40537c:	54ffff88 	b.hi	40536c <_int_malloc+0xc08>  // b.pmore
  405380:	f9400c20 	ldr	x0, [x1, #24]
  405384:	eb14001f 	cmp	x0, x20
  405388:	540000a0 	b.eq	40539c <_int_malloc+0xc38>  // b.none
  40538c:	f9400a80 	ldr	x0, [x20, #16]
  405390:	f9400401 	ldr	x1, [x0, #8]
  405394:	eb01005f 	cmp	x2, x1
  405398:	9a801294 	csel	x20, x20, x0, ne	// ne = any
  40539c:	cb1c0277 	sub	x23, x19, x28
  4053a0:	aa1403e0 	mov	x0, x20
  4053a4:	97fff421 	bl	402428 <unlink_chunk.isra.0>
  4053a8:	f1007eff 	cmp	x23, #0x1f
  4053ac:	54000da9 	b.ls	405560 <_int_malloc+0xdfc>  // b.plast
  4053b0:	f9400ac1 	ldr	x1, [x22, #16]
  4053b4:	8b1c0280 	add	x0, x20, x28
  4053b8:	f9400c22 	ldr	x2, [x1, #24]
  4053bc:	eb16005f 	cmp	x2, x22
  4053c0:	54000ca1 	b.ne	405554 <_int_malloc+0xdf0>  // b.any
  4053c4:	a9015801 	stp	x1, x22, [x0, #16]
  4053c8:	f9000ac0 	str	x0, [x22, #16]
  4053cc:	f9000c20 	str	x0, [x1, #24]
  4053d0:	f10ffeff 	cmp	x23, #0x3ff
  4053d4:	54000049 	b.ls	4053dc <_int_malloc+0xc78>  // b.plast
  4053d8:	a9027c1f 	stp	xzr, xzr, [x0, #32]
  4053dc:	f0000441 	adrp	x1, 490000 <.got.plt+0x18>
  4053e0:	9103c021 	add	x1, x1, #0xf0
  4053e4:	b24002e2 	orr	x2, x23, #0x1
  4053e8:	eb01033f 	cmp	x25, x1
  4053ec:	9a9f07e1 	cset	x1, ne	// ne = any
  4053f0:	aa010b81 	orr	x1, x28, x1, lsl #2
  4053f4:	b2400021 	orr	x1, x1, #0x1
  4053f8:	f9000681 	str	x1, [x20, #8]
  4053fc:	f9000402 	str	x2, [x0, #8]
  405400:	f8336a97 	str	x23, [x20, x19]
  405404:	91004294 	add	x20, x20, #0x10
  405408:	aa1503e1 	mov	x1, x21
  40540c:	aa1403e0 	mov	x0, x20
  405410:	97fff287 	bl	401e2c <alloc_perturb>
  405414:	a9425bf5 	ldp	x21, x22, [sp, #32]
  405418:	a94363f7 	ldp	x23, x24, [sp, #48]
  40541c:	a9446bf9 	ldp	x25, x26, [sp, #64]
  405420:	a94573fb 	ldp	x27, x28, [sp, #80]
  405424:	17fffdee 	b	404bdc <_int_malloc+0x478>
  405428:	d0000260 	adrp	x0, 453000 <__PRETTY_FUNCTION__.1+0x578>
  40542c:	91220000 	add	x0, x0, #0x880
  405430:	97fff230 	bl	401cf0 <malloc_printerr>
  405434:	8b1c0064 	add	x4, x3, x28
  405438:	a90112c4 	stp	x4, x4, [x22, #16]
  40543c:	cb1c0002 	sub	x2, x0, x28
  405440:	f9003724 	str	x4, [x25, #104]
  405444:	a9015896 	stp	x22, x22, [x4, #16]
  405448:	f10ffc5f 	cmp	x2, #0x3ff
  40544c:	54000049 	b.ls	405454 <_int_malloc+0xcf0>  // b.plast
  405450:	a9027c9f 	stp	xzr, xzr, [x4, #32]
  405454:	f0000440 	adrp	x0, 490000 <.got.plt+0x18>
  405458:	9103c000 	add	x0, x0, #0xf0
  40545c:	b2400046 	orr	x6, x2, #0x1
  405460:	eb00033f 	cmp	x25, x0
  405464:	91004074 	add	x20, x3, #0x10
  405468:	9a9f07e5 	cset	x5, ne	// ne = any
  40546c:	aa1503e1 	mov	x1, x21
  405470:	aa1403e0 	mov	x0, x20
  405474:	aa050b85 	orr	x5, x28, x5, lsl #2
  405478:	b24000a5 	orr	x5, x5, #0x1
  40547c:	f9000465 	str	x5, [x3, #8]
  405480:	f9000486 	str	x6, [x4, #8]
  405484:	f90000e2 	str	x2, [x7]
  405488:	17ffffe2 	b	405410 <_int_malloc+0xcac>
  40548c:	f0000442 	adrp	x2, 490000 <.got.plt+0x18>
  405490:	9103c042 	add	x2, x2, #0xf0
  405494:	eb02033f 	cmp	x25, x2
  405498:	8b1c0023 	add	x3, x1, x28
  40549c:	9a9f07e2 	cset	x2, ne	// ne = any
  4054a0:	cb1c0000 	sub	x0, x0, x28
  4054a4:	f9003323 	str	x3, [x25, #96]
  4054a8:	91004034 	add	x20, x1, #0x10
  4054ac:	aa020b82 	orr	x2, x28, x2, lsl #2
  4054b0:	b2400000 	orr	x0, x0, #0x1
  4054b4:	b2400042 	orr	x2, x2, #0x1
  4054b8:	f9000422 	str	x2, [x1, #8]
  4054bc:	aa1503e1 	mov	x1, x21
  4054c0:	f9000460 	str	x0, [x3, #8]
  4054c4:	aa1403e0 	mov	x0, x20
  4054c8:	17ffffd2 	b	405410 <_int_malloc+0xcac>
  4054cc:	aa1903e1 	mov	x1, x25
  4054d0:	aa1c03e0 	mov	x0, x28
  4054d4:	97fffab3 	bl	403fa0 <sysmalloc>
  4054d8:	aa0003f4 	mov	x20, x0
  4054dc:	b4ffb780 	cbz	x0, 404bcc <_int_malloc+0x468>
  4054e0:	aa1503e1 	mov	x1, x21
  4054e4:	17ffffcb 	b	405410 <_int_malloc+0xcac>
  4054e8:	d0000260 	adrp	x0, 453000 <__PRETTY_FUNCTION__.1+0x578>
  4054ec:	911fa000 	add	x0, x0, #0x7e8
  4054f0:	97fff200 	bl	401cf0 <malloc_printerr>
  4054f4:	d0000263 	adrp	x3, 453000 <__PRETTY_FUNCTION__.1+0x578>
  4054f8:	b0000261 	adrp	x1, 452000 <__pthread_mutex_cond_lock_full+0x680>
  4054fc:	d0000260 	adrp	x0, 453000 <__PRETTY_FUNCTION__.1+0x578>
  405500:	913ae063 	add	x3, x3, #0xeb8
  405504:	912ca021 	add	x1, x1, #0xb28
  405508:	91214000 	add	x0, x0, #0x850
  40550c:	52822302 	mov	w2, #0x1118                	// #4376
  405510:	94001ed4 	bl	40d060 <__libc_assert_fail>
  405514:	d0000263 	adrp	x3, 453000 <__PRETTY_FUNCTION__.1+0x578>
  405518:	b0000261 	adrp	x1, 452000 <__pthread_mutex_cond_lock_full+0x680>
  40551c:	d0000260 	adrp	x0, 453000 <__PRETTY_FUNCTION__.1+0x578>
  405520:	913ae063 	add	x3, x3, #0xeb8
  405524:	912ca021 	add	x1, x1, #0xb28
  405528:	911d6000 	add	x0, x0, #0x758
  40552c:	52820c02 	mov	w2, #0x1060                	// #4192
  405530:	94001ecc 	bl	40d060 <__libc_assert_fail>
  405534:	d0000263 	adrp	x3, 453000 <__PRETTY_FUNCTION__.1+0x578>
  405538:	b0000261 	adrp	x1, 452000 <__pthread_mutex_cond_lock_full+0x680>
  40553c:	d0000260 	adrp	x0, 453000 <__PRETTY_FUNCTION__.1+0x578>
  405540:	913ae063 	add	x3, x3, #0xeb8
  405544:	912ca021 	add	x1, x1, #0xb28
  405548:	911ce000 	add	x0, x0, #0x738
  40554c:	52820a62 	mov	w2, #0x1053                	// #4179
  405550:	94001ec4 	bl	40d060 <__libc_assert_fail>
  405554:	d0000260 	adrp	x0, 453000 <__PRETTY_FUNCTION__.1+0x578>
  405558:	91206000 	add	x0, x0, #0x818
  40555c:	97fff1e5 	bl	401cf0 <malloc_printerr>
  405560:	8b130293 	add	x19, x20, x19
  405564:	f0000440 	adrp	x0, 490000 <.got.plt+0x18>
  405568:	9103c000 	add	x0, x0, #0xf0
  40556c:	f9400661 	ldr	x1, [x19, #8]
  405570:	b2400021 	orr	x1, x1, #0x1
  405574:	f9000661 	str	x1, [x19, #8]
  405578:	eb00033f 	cmp	x25, x0
  40557c:	54fff440 	b.eq	405404 <_int_malloc+0xca0>  // b.none
  405580:	f9400680 	ldr	x0, [x20, #8]
  405584:	b27e0000 	orr	x0, x0, #0x4
  405588:	f9000680 	str	x0, [x20, #8]
  40558c:	17ffff9e 	b	405404 <_int_malloc+0xca0>

0000000000405590 <tcache_init.part.0>:
  405590:	a9bd7bfd 	stp	x29, x30, [sp, #-48]!
  405594:	d2a00000 	movz	x0, #0x0, lsl #16
  405598:	f2800500 	movk	x0, #0x28
  40559c:	910003fd 	mov	x29, sp
  4055a0:	f90013f5 	str	x21, [sp, #32]
  4055a4:	d53bd055 	mrs	x21, tpidr_el0
  4055a8:	a90153f3 	stp	x19, x20, [sp, #16]
  4055ac:	f8606ab3 	ldr	x19, [x21, x0]
  4055b0:	b4000353 	cbz	x19, 405618 <tcache_init.part.0+0x88>
  4055b4:	aa1303e2 	mov	x2, x19
  4055b8:	52800021 	mov	w1, #0x1                   	// #1
  4055bc:	52800000 	mov	w0, #0x0                   	// #0
  4055c0:	940111e8 	bl	449d60 <__aarch64_cas4_acq>
  4055c4:	350005e0 	cbnz	w0, 405680 <tcache_init.part.0+0xf0>
  4055c8:	aa1303e0 	mov	x0, x19
  4055cc:	d2805001 	mov	x1, #0x280                 	// #640
  4055d0:	97fffc65 	bl	404764 <_int_malloc>
  4055d4:	aa0003f4 	mov	x20, x0
  4055d8:	b4000340 	cbz	x0, 405640 <tcache_init.part.0+0xb0>
  4055dc:	aa1303e1 	mov	x1, x19
  4055e0:	52800000 	mov	w0, #0x0                   	// #0
  4055e4:	9401127b 	bl	449fd0 <__aarch64_swp4_rel>
  4055e8:	7100041f 	cmp	w0, #0x1
  4055ec:	5400044c 	b.gt	405674 <tcache_init.part.0+0xe4>
  4055f0:	914002b5 	add	x21, x21, #0x0, lsl #12
  4055f4:	9100a2b5 	add	x21, x21, #0x28
  4055f8:	aa1403e0 	mov	x0, x20
  4055fc:	d2805002 	mov	x2, #0x280                 	// #640
  405600:	52800001 	mov	w1, #0x0                   	// #0
  405604:	f90006b4 	str	x20, [x21, #8]
  405608:	f94013f5 	ldr	x21, [sp, #32]
  40560c:	a94153f3 	ldp	x19, x20, [sp, #16]
  405610:	a8c37bfd 	ldp	x29, x30, [sp], #48
  405614:	17ffeb23 	b	4002a0 <.plt+0x30>
  405618:	d2800001 	mov	x1, #0x0                   	// #0
  40561c:	d2805000 	mov	x0, #0x280                 	// #640
  405620:	97fff588 	bl	402c40 <arena_get2>
  405624:	aa0003f3 	mov	x19, x0
  405628:	d2805001 	mov	x1, #0x280                 	// #640
  40562c:	97fffc4e 	bl	404764 <_int_malloc>
  405630:	f100001f 	cmp	x0, #0x0
  405634:	aa0003f4 	mov	x20, x0
  405638:	fa400a64 	ccmp	x19, #0x0, #0x4, eq	// eq = none
  40563c:	54000100 	b.eq	40565c <tcache_init.part.0+0xcc>  // b.none
  405640:	aa1303e0 	mov	x0, x19
  405644:	d2805001 	mov	x1, #0x280                 	// #640
  405648:	97fff6d6 	bl	4031a0 <arena_get_retry>
  40564c:	aa0003f3 	mov	x19, x0
  405650:	d2805001 	mov	x1, #0x280                 	// #640
  405654:	97fffc44 	bl	404764 <_int_malloc>
  405658:	aa0003f4 	mov	x20, x0
  40565c:	b5000193 	cbnz	x19, 40568c <tcache_init.part.0+0xfc>
  405660:	b5fffc94 	cbnz	x20, 4055f0 <tcache_init.part.0+0x60>
  405664:	f94013f5 	ldr	x21, [sp, #32]
  405668:	a94153f3 	ldp	x19, x20, [sp, #16]
  40566c:	a8c37bfd 	ldp	x29, x30, [sp], #48
  405670:	d65f03c0 	ret
  405674:	aa1303e0 	mov	x0, x19
  405678:	97fff0c2 	bl	401980 <__lll_lock_wake_private>
  40567c:	17ffffdd 	b	4055f0 <tcache_init.part.0+0x60>
  405680:	aa1303e0 	mov	x0, x19
  405684:	97fff07f 	bl	401880 <__lll_lock_wait_private>
  405688:	17ffffd0 	b	4055c8 <tcache_init.part.0+0x38>
  40568c:	aa1303e1 	mov	x1, x19
  405690:	52800000 	mov	w0, #0x0                   	// #0
  405694:	9401124f 	bl	449fd0 <__aarch64_swp4_rel>
  405698:	7100041f 	cmp	w0, #0x1
  40569c:	54fffe2d 	b.le	405660 <tcache_init.part.0+0xd0>
  4056a0:	aa1303e0 	mov	x0, x19
  4056a4:	97fff0b7 	bl	401980 <__lll_lock_wake_private>
  4056a8:	17ffffee 	b	405660 <tcache_init.part.0+0xd0>

00000000004056ac <_int_realloc>:
  4056ac:	a9bb7bfd 	stp	x29, x30, [sp, #-80]!
  4056b0:	910003fd 	mov	x29, sp
  4056b4:	a90153f3 	stp	x19, x20, [sp, #16]
  4056b8:	a9025bf5 	stp	x21, x22, [sp, #32]
  4056bc:	a90363f7 	stp	x23, x24, [sp, #48]
  4056c0:	f9400435 	ldr	x21, [x1, #8]
  4056c4:	f90023f9 	str	x25, [sp, #64]
  4056c8:	f10042bf 	cmp	x21, #0x10
  4056cc:	54000989 	b.ls	4057fc <_int_realloc+0x150>  // b.plast
  4056d0:	aa0203f4 	mov	x20, x2
  4056d4:	aa0003f8 	mov	x24, x0
  4056d8:	f9444402 	ldr	x2, [x0, #2184]
  4056dc:	eb14005f 	cmp	x2, x20
  4056e0:	540008e9 	b.ls	4057fc <_int_realloc+0x150>  // b.plast
  4056e4:	aa0103f3 	mov	x19, x1
  4056e8:	927df2a1 	and	x1, x21, #0xfffffffffffffff8
  4056ec:	eb14003f 	cmp	x1, x20
  4056f0:	54000861 	b.ne	4057fc <_int_realloc+0x150>  // b.any
  4056f4:	37080f15 	tbnz	w21, #1, 4058d4 <_int_realloc+0x228>
  4056f8:	8b010279 	add	x25, x19, x1
  4056fc:	f9400724 	ldr	x4, [x25, #8]
  405700:	927df085 	and	x5, x4, #0xfffffffffffffff8
  405704:	eb05005f 	cmp	x2, x5
  405708:	fa508880 	ccmp	x4, #0x10, #0x0, hi	// hi = pmore
  40570c:	54000b89 	b.ls	40587c <_int_realloc+0x1d0>  // b.plast
  405710:	aa0303f7 	mov	x23, x3
  405714:	eb03003f 	cmp	x1, x3
  405718:	54000303 	b.cc	405778 <_int_realloc+0xcc>  // b.lo, b.ul, b.last
  40571c:	f0000440 	adrp	x0, 490000 <.got.plt+0x18>
  405720:	9103c000 	add	x0, x0, #0xf0
  405724:	eb00031f 	cmp	x24, x0
  405728:	92400ab5 	and	x21, x21, #0x7
  40572c:	9a9f07e1 	cset	x1, ne	// ne = any
  405730:	cb170280 	sub	x0, x20, x23
  405734:	aa010ab5 	orr	x21, x21, x1, lsl #2
  405738:	d37ef422 	lsl	x2, x1, #2
  40573c:	f1007c1f 	cmp	x0, #0x1f
  405740:	54000648 	b.hi	405808 <_int_realloc+0x15c>  // b.pmore
  405744:	aa150294 	orr	x20, x20, x21
  405748:	f9000674 	str	x20, [x19, #8]
  40574c:	f9400720 	ldr	x0, [x25, #8]
  405750:	b2400000 	orr	x0, x0, #0x1
  405754:	f9000720 	str	x0, [x25, #8]
  405758:	91004276 	add	x22, x19, #0x10
  40575c:	f94023f9 	ldr	x25, [sp, #64]
  405760:	aa1603e0 	mov	x0, x22
  405764:	a94153f3 	ldp	x19, x20, [sp, #16]
  405768:	a9425bf5 	ldp	x21, x22, [sp, #32]
  40576c:	a94363f7 	ldp	x23, x24, [sp, #48]
  405770:	a8c57bfd 	ldp	x29, x30, [sp], #80
  405774:	d65f03c0 	ret
  405778:	f9403000 	ldr	x0, [x0, #96]
  40577c:	eb19001f 	cmp	x0, x25
  405780:	54000840 	b.eq	405888 <_int_realloc+0x1dc>  // b.none
  405784:	8b050320 	add	x0, x25, x5
  405788:	f9400400 	ldr	x0, [x0, #8]
  40578c:	36000580 	tbz	w0, #0, 40583c <_int_realloc+0x190>
  405790:	d1003ee1 	sub	x1, x23, #0xf
  405794:	aa1803e0 	mov	x0, x24
  405798:	97fffbf3 	bl	404764 <_int_malloc>
  40579c:	aa0003f6 	mov	x22, x0
  4057a0:	b4fffde0 	cbz	x0, 40575c <_int_realloc+0xb0>
  4057a4:	d1004001 	sub	x1, x0, #0x10
  4057a8:	eb01033f 	cmp	x25, x1
  4057ac:	54000580 	b.eq	40585c <_int_realloc+0x1b0>  // b.none
  4057b0:	f9400663 	ldr	x3, [x19, #8]
  4057b4:	91004261 	add	x1, x19, #0x10
  4057b8:	927df062 	and	x2, x3, #0xfffffffffffffff8
  4057bc:	d3410463 	ubfx	x3, x3, #1, #1
  4057c0:	d1004042 	sub	x2, x2, #0x10
  4057c4:	d2400063 	eor	x3, x3, #0x1
  4057c8:	8b030c42 	add	x2, x2, x3, lsl #3
  4057cc:	97ffeaad 	bl	400280 <.plt+0x10>
  4057d0:	aa1303e1 	mov	x1, x19
  4057d4:	aa1803e0 	mov	x0, x24
  4057d8:	52800022 	mov	w2, #0x1                   	// #1
  4057dc:	97fff8fa 	bl	403bc4 <_int_free>
  4057e0:	f94023f9 	ldr	x25, [sp, #64]
  4057e4:	aa1603e0 	mov	x0, x22
  4057e8:	a94153f3 	ldp	x19, x20, [sp, #16]
  4057ec:	a9425bf5 	ldp	x21, x22, [sp, #32]
  4057f0:	a94363f7 	ldp	x23, x24, [sp, #48]
  4057f4:	a8c57bfd 	ldp	x29, x30, [sp], #80
  4057f8:	d65f03c0 	ret
  4057fc:	d0000260 	adrp	x0, 453000 <__PRETTY_FUNCTION__.1+0x578>
  405800:	91232000 	add	x0, x0, #0x8c8
  405804:	97fff13b 	bl	401cf0 <malloc_printerr>
  405808:	8b170261 	add	x1, x19, x23
  40580c:	aa1502e3 	orr	x3, x23, x21
  405810:	aa020000 	orr	x0, x0, x2
  405814:	f9000663 	str	x3, [x19, #8]
  405818:	b2400000 	orr	x0, x0, #0x1
  40581c:	52800022 	mov	w2, #0x1                   	// #1
  405820:	f9000420 	str	x0, [x1, #8]
  405824:	aa1803e0 	mov	x0, x24
  405828:	f9400723 	ldr	x3, [x25, #8]
  40582c:	b2400063 	orr	x3, x3, #0x1
  405830:	f9000723 	str	x3, [x25, #8]
  405834:	97fff8e4 	bl	403bc4 <_int_free>
  405838:	17ffffc8 	b	405758 <_int_realloc+0xac>
  40583c:	8b050296 	add	x22, x20, x5
  405840:	eb16007f 	cmp	x3, x22
  405844:	54fffa68 	b.hi	405790 <_int_realloc+0xe4>  // b.pmore
  405848:	aa1903e0 	mov	x0, x25
  40584c:	aa1603f4 	mov	x20, x22
  405850:	8b160279 	add	x25, x19, x22
  405854:	97fff2f5 	bl	402428 <unlink_chunk.isra.0>
  405858:	17ffffb1 	b	40571c <_int_realloc+0x70>
  40585c:	f9400720 	ldr	x0, [x25, #8]
  405860:	927df000 	and	x0, x0, #0xfffffffffffffff8
  405864:	8b000294 	add	x20, x20, x0
  405868:	eb1402ff 	cmp	x23, x20
  40586c:	54000448 	b.hi	4058f4 <_int_realloc+0x248>  // b.pmore
  405870:	f9400675 	ldr	x21, [x19, #8]
  405874:	8b140279 	add	x25, x19, x20
  405878:	17ffffa9 	b	40571c <_int_realloc+0x70>
  40587c:	d0000260 	adrp	x0, 453000 <__PRETTY_FUNCTION__.1+0x578>
  405880:	91242000 	add	x0, x0, #0x908
  405884:	97fff11b 	bl	401cf0 <malloc_printerr>
  405888:	8b050021 	add	x1, x1, x5
  40588c:	91008060 	add	x0, x3, #0x20
  405890:	eb00003f 	cmp	x1, x0
  405894:	54fff7e3 	b.cc	405790 <_int_realloc+0xe4>  // b.lo, b.ul, b.last
  405898:	f0000440 	adrp	x0, 490000 <.got.plt+0x18>
  40589c:	9103c000 	add	x0, x0, #0xf0
  4058a0:	eb00031f 	cmp	x24, x0
  4058a4:	92400ab5 	and	x21, x21, #0x7
  4058a8:	9a9f07e0 	cset	x0, ne	// ne = any
  4058ac:	8b030262 	add	x2, x19, x3
  4058b0:	cb030021 	sub	x1, x1, x3
  4058b4:	91004276 	add	x22, x19, #0x10
  4058b8:	aa000aa0 	orr	x0, x21, x0, lsl #2
  4058bc:	b2400021 	orr	x1, x1, #0x1
  4058c0:	aa030000 	orr	x0, x0, x3
  4058c4:	f9000660 	str	x0, [x19, #8]
  4058c8:	f9003302 	str	x2, [x24, #96]
  4058cc:	f9000441 	str	x1, [x2, #8]
  4058d0:	17ffffa3 	b	40575c <_int_realloc+0xb0>
  4058d4:	d0000263 	adrp	x3, 453000 <__PRETTY_FUNCTION__.1+0x578>
  4058d8:	b0000261 	adrp	x1, 452000 <__pthread_mutex_cond_lock_full+0x680>
  4058dc:	d0000260 	adrp	x0, 453000 <__PRETTY_FUNCTION__.1+0x578>
  4058e0:	9138a063 	add	x3, x3, #0xe28
  4058e4:	912ca021 	add	x1, x1, #0xb28
  4058e8:	9123a000 	add	x0, x0, #0x8e8
  4058ec:	528268a2 	mov	w2, #0x1345                	// #4933
  4058f0:	94001ddc 	bl	40d060 <__libc_assert_fail>
  4058f4:	d0000263 	adrp	x3, 453000 <__PRETTY_FUNCTION__.1+0x578>
  4058f8:	b0000261 	adrp	x1, 452000 <__pthread_mutex_cond_lock_full+0x680>
  4058fc:	d0000260 	adrp	x0, 453000 <__PRETTY_FUNCTION__.1+0x578>
  405900:	9138a063 	add	x3, x3, #0xe28
  405904:	912ca021 	add	x1, x1, #0xb28
  405908:	9124a000 	add	x0, x0, #0x928
  40590c:	528271c2 	mov	w2, #0x138e                	// #5006
  405910:	94001dd4 	bl	40d060 <__libc_assert_fail>
  405914:	d503201f 	nop
  405918:	d503201f 	nop
  40591c:	d503201f 	nop

0000000000405920 <_int_memalign>:
  405920:	a9bc7bfd 	stp	x29, x30, [sp, #-64]!
  405924:	91005c42 	add	x2, x2, #0x17
  405928:	f1007c5f 	cmp	x2, #0x1f
  40592c:	927cec42 	and	x2, x2, #0xfffffffffffffff0
  405930:	d2800403 	mov	x3, #0x20                  	// #32
  405934:	910003fd 	mov	x29, sp
  405938:	a90153f3 	stp	x19, x20, [sp, #16]
  40593c:	9a838053 	csel	x19, x2, x3, hi	// hi = pmore
  405940:	a90363f7 	stp	x23, x24, [sp, #48]
  405944:	aa0103f8 	mov	x24, x1
  405948:	8b030021 	add	x1, x1, x3
  40594c:	8b130021 	add	x1, x1, x19
  405950:	a9025bf5 	stp	x21, x22, [sp, #32]
  405954:	aa0003f6 	mov	x22, x0
  405958:	97fffb83 	bl	404764 <_int_malloc>
  40595c:	aa0003f4 	mov	x20, x0
  405960:	b40008c0 	cbz	x0, 405a78 <_int_memalign+0x158>
  405964:	9ad80802 	udiv	x2, x0, x24
  405968:	d1004001 	sub	x1, x0, #0x10
  40596c:	aa0103f5 	mov	x21, x1
  405970:	9b188042 	msub	x2, x2, x24, x0
  405974:	b40004e2 	cbz	x2, 405a10 <_int_memalign+0xf0>
  405978:	d1000715 	sub	x21, x24, #0x1
  40597c:	cb1803e0 	neg	x0, x24
  405980:	8b150295 	add	x21, x20, x21
  405984:	8a0002b5 	and	x21, x21, x0
  405988:	d10042b5 	sub	x21, x21, #0x10
  40598c:	cb0102a2 	sub	x2, x21, x1
  405990:	f1007c5f 	cmp	x2, #0x1f
  405994:	54000068 	b.hi	4059a0 <_int_memalign+0x80>  // b.pmore
  405998:	8b1802b5 	add	x21, x21, x24
  40599c:	cb0102a2 	sub	x2, x21, x1
  4059a0:	f9400420 	ldr	x0, [x1, #8]
  4059a4:	927df017 	and	x23, x0, #0xfffffffffffffff8
  4059a8:	cb0202f7 	sub	x23, x23, x2
  4059ac:	37080720 	tbnz	w0, #1, 405a90 <_int_memalign+0x170>
  4059b0:	f0000440 	adrp	x0, 490000 <.got.plt+0x18>
  4059b4:	9103c000 	add	x0, x0, #0xf0
  4059b8:	eb0002df 	cmp	x22, x0
  4059bc:	8b1702a5 	add	x5, x21, x23
  4059c0:	9a9f07e3 	cset	x3, ne	// ne = any
  4059c4:	aa1603e0 	mov	x0, x22
  4059c8:	aa030ae4 	orr	x4, x23, x3, lsl #2
  4059cc:	b2400084 	orr	x4, x4, #0x1
  4059d0:	f90006a4 	str	x4, [x21, #8]
  4059d4:	f94004a4 	ldr	x4, [x5, #8]
  4059d8:	b2400084 	orr	x4, x4, #0x1
  4059dc:	f90004a4 	str	x4, [x5, #8]
  4059e0:	f9400424 	ldr	x4, [x1, #8]
  4059e4:	92400884 	and	x4, x4, #0x7
  4059e8:	aa030883 	orr	x3, x4, x3, lsl #2
  4059ec:	aa020063 	orr	x3, x3, x2
  4059f0:	f9000423 	str	x3, [x1, #8]
  4059f4:	97fff824 	bl	403a84 <_int_free_merge_chunk>
  4059f8:	eb1302ff 	cmp	x23, x19
  4059fc:	54000663 	b.cc	405ac8 <_int_memalign+0x1a8>  // b.lo, b.ul, b.last
  405a00:	910042b4 	add	x20, x21, #0x10
  405a04:	9ad80a80 	udiv	x0, x20, x24
  405a08:	9b18d000 	msub	x0, x0, x24, x20
  405a0c:	b50005e0 	cbnz	x0, 405ac8 <_int_memalign+0x1a8>
  405a10:	f94006a0 	ldr	x0, [x21, #8]
  405a14:	37080320 	tbnz	w0, #1, 405a78 <_int_memalign+0x158>
  405a18:	927df002 	and	x2, x0, #0xfffffffffffffff8
  405a1c:	eb13005f 	cmp	x2, x19
  405a20:	540002c9 	b.ls	405a78 <_int_memalign+0x158>  // b.plast
  405a24:	8b0202a3 	add	x3, x21, x2
  405a28:	cb130042 	sub	x2, x2, x19
  405a2c:	f9400464 	ldr	x4, [x3, #8]
  405a30:	927df084 	and	x4, x4, #0xfffffffffffffff8
  405a34:	f1007c5f 	cmp	x2, #0x1f
